LX51 LINKER/LOCATER V4.66.93.0                                                          12/24/2024  17:25:26  PAGE 1


LX51 LINKER/LOCATER V4.66.93.0, INVOKED BY:
C:\KEIL_V5\C51\BIN\LX51.EXE .\Objects\STARTUP.obj, .\Objects\main.obj, .\Objects\app_main.obj, .\Objects\1602LCD.obj, .\
>> Objects\HX711.obj, .\Objects\systick.obj, .\divers\stc_usb_cdc_8h_xdata_interrupt.LIB, .\Objects\I2C.obj, .\Objects\k
>> ey_detect.obj, .\Objects\AT24C04.obj TO .\Objects\多功能电子秤 PRINT (.\Listings\多功能电子秤.map) REMOVEUNUSED


CPU MODE:     8051 MODE
MEMORY MODEL: LARGE WITH FLOATING POINT ARITHMETIC


INPUT MODULES INCLUDED:
  .\Objects\STARTUP.obj (?C_STARTUP)
         COMMENT TYPE 1: A51 / ASM51 Assembler
  .\Objects\main.obj (MAIN)
         COMMENT TYPE 0: C51 V9.59.0.0
  .\Objects\app_main.obj (APP_MAIN)
         COMMENT TYPE 0: C51 V9.59.0.0
  .\Objects\1602LCD.obj (1602LCD)
         COMMENT TYPE 0: C51 V9.59.0.0
  .\Objects\HX711.obj (HX711)
         COMMENT TYPE 0: C51 V9.59.0.0
  .\Objects\systick.obj (SYSTICK)
         COMMENT TYPE 0: C51 V9.59.0.0
  .\divers\stc_usb_cdc_8h_xdata_interrupt.LIB (USB)
         COMMENT TYPE 0: C51 V9.00
  .\divers\stc_usb_cdc_8h_xdata_interrupt.LIB (UTIL)
         COMMENT TYPE 0: C51 V9.00
  .\divers\stc_usb_cdc_8h_xdata_interrupt.LIB (USB_REQ_CLASS)
         COMMENT TYPE 0: C51 V9.00
  .\divers\stc_usb_cdc_8h_xdata_interrupt.LIB (USB_REQ_STD)
         COMMENT TYPE 0: C51 V9.00
  .\divers\stc_usb_cdc_8h_xdata_interrupt.LIB (USB_REQ_VENDOR)
         COMMENT TYPE 0: C51 V9.00
  .\divers\stc_usb_cdc_8h_xdata_interrupt.LIB (USB_DESC)
         COMMENT TYPE 0: C51 V9.00
  .\Objects\I2C.obj (I2C)
         COMMENT TYPE 0: C51 V9.59.0.0
  .\Objects\key_detect.obj (KEY_DETECT)
         COMMENT TYPE 0: C51 V9.59.0.0
  .\Objects\AT24C04.obj (AT24C04)
         COMMENT TYPE 0: C51 V9.59.0.0
  C:\KEIL_V5\C51\LIB\C51FPL.LIB (PRINTF)
         COMMENT TYPE 1: A51 / ASM51 Assembler
  C:\KEIL_V5\C51\LIB\C51FPL.LIB (VSPRINTF)
         COMMENT TYPE 1: A51 / ASM51 Assembler
  C:\KEIL_V5\C51\LIB\C51FPL.LIB (?C?FPROUND)
         COMMENT TYPE 1: A51 / ASM51 Assembler
  C:\KEIL_V5\C51\LIB\C51FPL.LIB (?C?FPCONVERT)
         COMMENT TYPE 1: A51 / ASM51 Assembler
  C:\KEIL_V5\C51\LIB\C51FPL.LIB (?C?FPADD)
         COMMENT TYPE 1: A51 / ASM51 Assembler
  C:\KEIL_V5\C51\LIB\C51FPL.LIB (?C?FPMUL)
         COMMENT TYPE 1: A51 / ASM51 Assembler
  C:\KEIL_V5\C51\LIB\C51FPL.LIB (?C?FPDIV)
         COMMENT TYPE 1: A51 / ASM51 Assembler
  C:\KEIL_V5\C51\LIB\C51FPL.LIB (?C?FTNPWR)
         COMMENT TYPE 1: A51 / ASM51 Assembler
  C:\KEIL_V5\C51\LIB\C51FPL.LIB (?C?FPGETOPN)
         COMMENT TYPE 1: A51 / ASM51 Assembler
  C:\KEIL_V5\C51\LIB\C51L.LIB (?C_INIT)
         COMMENT TYPE 1: A51 / ASM51 Assembler
  C:\KEIL_V5\C51\LIB\C51L.LIB (?C?COPY)
         COMMENT TYPE 1: A51 / ASM51 Assembler
  C:\KEIL_V5\C51\LIB\C51L.LIB (?C?CLDPTR)
         COMMENT TYPE 1: A51 / ASM51 Assembler
  C:\KEIL_V5\C51\LIB\C51L.LIB (?C?CLDOPTR)
LX51 LINKER/LOCATER V4.66.93.0                                                        12/24/2024  17:25:26  PAGE 2


         COMMENT TYPE 1: A51 / ASM51 Assembler
  C:\KEIL_V5\C51\LIB\C51L.LIB (?C?CSTPTR)
         COMMENT TYPE 1: A51 / ASM51 Assembler
  C:\KEIL_V5\C51\LIB\C51L.LIB (?C?IMUL)
         COMMENT TYPE 1: A51 / ASM51 Assembler
  C:\KEIL_V5\C51\LIB\C51L.LIB (?C?UIDIV)
         COMMENT TYPE 1: A51 / ASM51 Assembler
  C:\KEIL_V5\C51\LIB\C51L.LIB (?C?IILDX)
         COMMENT TYPE 1: A51 / ASM51 Assembler
  C:\KEIL_V5\C51\LIB\C51L.LIB (?C?ILDIX)
         COMMENT TYPE 1: A51 / ASM51 Assembler
  C:\KEIL_V5\C51\LIB\C51L.LIB (?C?LMUL)
         COMMENT TYPE 1: A51 / ASM51 Assembler
  C:\KEIL_V5\C51\LIB\C51L.LIB (?C?ULDIV)
         COMMENT TYPE 1: A51 / ASM51 Assembler
  C:\KEIL_V5\C51\LIB\C51L.LIB (?C?ULCMP)
         COMMENT TYPE 1: A51 / ASM51 Assembler
  C:\KEIL_V5\C51\LIB\C51L.LIB (?C?LSHL)
         COMMENT TYPE 1: A51 / ASM51 Assembler
  C:\KEIL_V5\C51\LIB\C51L.LIB (?C?LSTXDATA)
         COMMENT TYPE 1: A51 / ASM51 Assembler
  C:\KEIL_V5\C51\LIB\C51L.LIB (?C?LSTKXDATA)
         COMMENT TYPE 1: A51 / ASM51 Assembler
  C:\KEIL_V5\C51\LIB\C51L.LIB (?C?PLDIXDATA)
         COMMENT TYPE 1: A51 / ASM51 Assembler
  C:\KEIL_V5\C51\LIB\C51L.LIB (?C?PSTXDATA)
         COMMENT TYPE 1: A51 / ASM51 Assembler
  C:\KEIL_V5\C51\LIB\C51L.LIB (?C?CCASE)
         COMMENT TYPE 1: A51 / ASM51 Assembler
  C:\KEIL_V5\C51\LIB\C51L.LIB (?C?LIMUL)
         COMMENT TYPE 1: A51 / ASM51 Assembler
  C:\KEIL_V5\C51\LIB\C51L.LIB (PUTCHAR)
         COMMENT TYPE 1: A51 / ASM51 Assembler
  C:\KEIL_V5\C51\LIB\C51L.LIB (STRLEN)
         COMMENT TYPE 1: A51 / ASM51 Assembler


ACTIVE MEMORY CLASSES OF MODULE:  .\Objects\多功能电子秤 (?C_STARTUP)

BASE        START       END         USED      MEMORY CLASS
==========================================================
C:000000H   C:000000H   C:00FFFFH   002843H   CODE
I:000000H   I:000000H   I:0000FFH   000001H   IDATA
I:000020H.0 I:000020H.0 I:00002FH.7 000003H.6 BIT
X:000000H   X:000000H   X:00FFFFH   000243H   XDATA
C:000000H   C:000000H   C:00FFFFH   00015CH   CONST
I:000000H   I:000000H   I:00007FH   000012H   DATA


MEMORY MAP OF MODULE:  .\Objects\多功能电子秤 (?C_STARTUP)


START     STOP      LENGTH    ALIGN  RELOC    MEMORY CLASS   SEGMENT NAME
=========================================================================

* * * * * * * * * * *   D A T A   M E M O R Y   * * * * * * * * * * * * *
000000H   000007H   000008H   ---    AT..     DATA           "REG BANK 0"
000008H   000011H   00000AH   BYTE   UNIT     DATA           _DATA_GROUP_
000012H.0 00001FH.7 00000EH.0 ---    ---      **GAP**
000020H.0 000022H.1 000002H.2 BIT    UNIT     BIT            _BIT_GROUP_
000022H.2 000022H.6 000000H.5 BIT    UNIT     BIT            ?BI?APP_MAIN
000022H.7 000023H.1 000000H.3 BIT    UNIT     BIT            ?BI?USB
000023H.2 000023H.2 000000H.1 BIT    UNIT     BIT            ?BI?MAIN
000023H.3 000023H.3 000000H.1 BIT    UNIT     BIT            ?BI?HX711
000023H.4 000023H.4 000000H.1 BIT    UNIT     BIT            ?BI?I2C
LX51 LINKER/LOCATER V4.66.93.0                                                        12/24/2024  17:25:26  PAGE 3


000023H.5 000023H.5 000000H.1 BIT    UNIT     BIT            ?BI?AT24C04
000023H.6 000023H   000000H.2 ---    ---      **GAP**
000024H   000024H   000001H   BYTE   UNIT     IDATA          ?STACK

* * * * * * * * * * *   C O D E   M E M O R Y   * * * * * * * * * * * * *
000000H   000002H   000003H   ---    OFFS..   CODE           ?CO??C_STARTUP?0
000003H   000007H   000005H   BYTE   UNIT     CODE           ?PR?MAIN?MAIN
000008H   00000AH   000003H   BYTE   UNIT     CODE           ?PR?USB_SET_DESCRIPTOR?USB_REQ_STD
00000BH   00000DH   000003H   BYTE   OFFS..   CODE           ?SYSTICK?0000B
00000EH   0000B1H   0000A4H   BYTE   UNIT     CODE           ?PR?USB_ISR?USB
0000B2H   0000C1H   000010H   BYTE   UNIT     CODE           ?PR?USB_SETUP_IN?USB
0000C2H   0000C2H   000001H   BYTE   UNIT     CODE           ?PR?USB_RESUME?USB
0000C3H   0000C5H   000003H   BYTE   OFFS..   CODE           ?APP_MAIN?000C3
0000C6H   0000C8H   000003H   BYTE   UNIT     CODE           ?PR?USB_SYNCH_FRAME?USB_REQ_STD
0000C9H   0000C9H   000001H   BYTE   UNIT     CODE           ?PR?USB_SUSPEND?USB
0000CAH   0000CAH   000001H   ---    ---      **GAP**
0000CBH   0000CDH   000003H   BYTE   OFFS..   CODE           ?USB?000CB
0000CEH   000939H   00086CH   BYTE   UNIT     CODE           ?C?LIB_CODE
00093AH   000DBCH   000483H   BYTE   UNIT     CODE           ?PR?PRINTF?PRINTF
000DBDH   000FE5H   000229H   BYTE   UNIT     CODE           ?PR?LCD_DISPLAY_COUNT?APP_MAIN
000FE6H   0011B8H   0001D3H   BYTE   UNIT     CODE           ?PR?OVERWEIGHT_ALARM?APP_MAIN
0011B9H   001328H   000170H   BYTE   UNIT     CODE           ?PR?LCD_DISPLAY_WEIGHT?APP_MAIN
001329H   001490H   000168H   BYTE   UNIT     CODE           ?PR?APP_MAIN?APP_MAIN
001491H   0015A7H   000117H   BYTE   UNIT     CODE           ?PR?USB_GET_STATUS?USB_REQ_STD
0015A8H   00169BH   0000F4H   BYTE   UNIT     CODE           ?PR?USB_OUT_EP1?USB
00169CH   00176AH   0000CFH   BYTE   UNIT     CODE           ?PR?_USB_SET_WEIGHT_K?APP_MAIN
00176BH   001834H   0000CAH   BYTE   UNIT     CODE           ?PR?USB_GET_DESCRIPTOR?USB_REQ_STD
001835H   0018D4H   0000A0H   BYTE   UNIT     CODE           ?PR?READ_WEIGHT_BASE?HX711
0018D5H   001974H   0000A0H   BYTE   UNIT     CODE           ?PR?USB_CLEAR_FEATURE?USB_REQ_STD
001975H   001A12H   00009EH   BYTE   UNIT     CODE           ?PR?_USB_SENDDATA?USB
001A13H   001AB0H   00009EH   BYTE   UNIT     CODE           ?PR?USB_SET_FEATURE?USB_REQ_STD
001AB1H   001B4DH   00009DH   BYTE   UNIT     CODE           ?PR?USB_SET_CONFIGURATION?USB_REQ_STD
001B4EH   001BDAH   00008DH   BYTE   UNIT     CODE           ?PR?_USB_IN?USB
001BDBH   001C66H   00008CH   BYTE   UNIT     CODE           ?C_C51STARTUP
001C67H   001CEFH   000089H   BYTE   UNIT     CODE           ?C_INITSEG
001CF0H   001D78H   000089H   BYTE   UNIT     CODE           ?PR?READCOUNT?HX711
001D79H   001DF8H   000080H   BYTE   UNIT     CODE           ?PR?_READ_WEIGHT?HX711
001DF9H   001E73H   00007BH   BYTE   UNIT     CODE           ?PR?DISPLAY_PERSONINFO?APP_MAIN
001E74H   001EEBH   000078H   BYTE   UNIT     CODE           ?PR?USB_SETUP?USB
001EECH   001F5EH   000073H   BYTE   UNIT     CODE           ?PR?USB_CTRL_IN?USB
001F5FH   001FC9H   00006BH   BYTE   UNIT     CODE           ?PR?_WEIGHT_THRESHOLD?APP_MAIN
001FCAH   002034H   00006BH   BYTE   UNIT     CODE           ?PR?USB_INIT?USB
002035H   002094H   000060H   BYTE   UNIT     CODE           ?PR?_PRINTF_USB?UTIL
002095H   0020F0H   00005CH   BYTE   UNIT     CODE           ?PR?USB_REQ_STD?USB_REQ_STD
0020F1H   00214CH   00005CH   BYTE   UNIT     CODE           ?PR?USB_GET_CONFIGURATION?USB_REQ_STD
00214DH   0021A7H   00005BH   BYTE   UNIT     CODE           ?PR?COUNT_WEIGHT?APP_MAIN
0021A8H   0021F8H   000051H   BYTE   UNIT     CODE           ?PR?USB_SET_ADDRESS?USB_REQ_STD
0021F9H   002247H   00004FH   BYTE   UNIT     CODE           ?PR?USB_CTRL_OUT?USB
002248H   002292H   00004BH   BYTE   UNIT     CODE           ?PR?TIMER0_ISR?SYSTICK
002293H   0022DCH   00004AH   BYTE   UNIT     CODE           ?PR?_VSPRINTF?VSPRINTF
0022DDH   002324H   000048H   BYTE   UNIT     CODE           ?PR?TARE_WEIGHT?APP_MAIN
002325H   002366H   000042H   BYTE   UNIT     CODE           ?PR?_USB_BULK_INTR_IN?USB
002367H   0023A7H   000041H   BYTE   UNIT     CODE           ?PR?USB_GET_INTERFACE?USB_REQ_STD
0023A8H   0023E4H   00003DH   BYTE   UNIT     CODE           ?PR?USB_RESET?USB
0023E5H   00241EH   00003AH   BYTE   UNIT     CODE           ?PR?_USB_READ_FIFO?USB
00241FH   002457H   000039H   BYTE   UNIT     CODE           ?PR?_DELAYTICK?SYSTICK
002458H   00248EH   000037H   BYTE   UNIT     CODE           ?PR?_LCD1602_DISPLAY_STRING?1602LCD
00248FH   0024C3H   000035H   BYTE   UNIT     CODE           ?PR?_LCD_SETCURSOR?1602LCD
0024C4H   0024F6H   000033H   BYTE   UNIT     CODE           ?PR?_USB_WRITE_FIFO?USB
0024F7H   002529H   000033H   BYTE   UNIT     CODE           ?PR?USB_SET_LINE_CODING?USB_REQ_CLASS
00252AH   00255CH   000033H   BYTE   UNIT     CODE           ?PR?USB_GET_LINE_CODING?USB_REQ_CLASS
00255DH   00258BH   00002FH   BYTE   UNIT     CODE           ?PR?LCD1602_RDBF?1602LCD
00258CH   0025B9H   00002EH   BYTE   UNIT     CODE           ?PR?PAGE_SWITCHING?APP_MAIN
0025BAH   0025E5H   00002CH   BYTE   UNIT     CODE           ?PR?_LCD1602_WR_DATA?1602LCD
0025E6H   002611H   00002CH   BYTE   UNIT     CODE           ?PR?_LCD1602_WR_COMMAND?1602LCD
LX51 LINKER/LOCATER V4.66.93.0                                                        12/24/2024  17:25:26  PAGE 4


002612H   00263AH   000029H   BYTE   UNIT     CODE           ?PR?USB_SET_INTERFACE?USB_REQ_STD
00263BH   002661H   000027H   BYTE   UNIT     CODE           ?PR?_KEYSCAN?KEY_DETECT
002662H   002688H   000027H   BYTE   UNIT     CODE           ?PR?PUTCHAR?PUTCHAR
002689H   0026AAH   000022H   BYTE   UNIT     CODE           ?PR?IO_INIT?APP_MAIN
0026ABH   0026CAH   000020H   BYTE   UNIT     CODE           ?PR?USB_IN_EP1?USB
0026CBH   0026E9H   00001FH   BYTE   UNIT     CODE           ?PR?_SLEEP_US?UTIL
0026EAH   002707H   00001EH   BYTE   UNIT     CODE           ?PR?USB_IN_EP2?USB
002708H   002723H   00001CH   BYTE   UNIT     CODE           ?PR?_USB_WRITE_REG?USB
002724H   00273FH   00001CH   BYTE   UNIT     CODE           ?PR?_REVERSE2?UTIL
002740H   00275BH   00001CH   BYTE   UNIT     CODE           ?PR?USB_REQ_CLASS?USB_REQ_CLASS
00275CH   002776H   00001BH   BYTE   UNIT     CODE           ?PR?_USB_READ_REG?USB
002777H   00278FH   000019H   BYTE   UNIT     CODE           ?PR?USB_OUT_CALLBACK?APP_MAIN
002790H   0027A8H   000019H   BYTE   UNIT     CODE           ?PR?I2C_ISR?APP_MAIN
0027A9H   0027C0H   000018H   BYTE   UNIT     CODE           ?PR?_SLEEP_MS?UTIL
0027C1H   0027D6H   000016H   BYTE   UNIT     CODE           ?PR?USB_SET_CTRL_LINE_STATE?USB_REQ_CLASS
0027D7H   0027EAH   000014H   BYTE   UNIT     CODE           ?PR?LCD1602_INIT?1602LCD
0027EBH   0027FDH   000013H   BYTE   UNIT     CODE           ?PR?TIMER0_INIT?SYSTICK
0027FEH   00280CH   00000FH   BYTE   UNIT     CODE           ?PR?GET_TIKC?SYSTICK
00280DH   00281AH   00000EH   BYTE   UNIT     CODE           ?PR?I2C_INIT?I2C
00281BH   002827H   00000DH   BYTE   UNIT     CODE           ?PR?USB_SETUP_STALL?USB
002828H   002834H   00000DH   BYTE   UNIT     CODE           ?PR?USB_SETUP_OUT?USB
002835H   002840H   00000CH   BYTE   UNIT     CODE           ?PR?USB_SETUP_STATUS?USB
002841H   002843H   000003H   BYTE   UNIT     CODE           ?PR?USB_REQ_VENDOR?USB_REQ_VENDOR
002844H   00291CH   0000D9H   BYTE   UNIT     CONST          ?CO?APP_MAIN
00291DH   00299FH   000083H   BYTE   UNIT     CONST          ?CO?USB_DESC

* * * * * * * * * * *  X D A T A   M E M O R Y  * * * * * * * * * * * * *
000000H   0000D2H   0000D3H   BYTE   UNIT     XDATA          ?XD?USB
0000D3H   000194H   0000C2H   BYTE   UNIT     XDATA          ?XD?APP_MAIN
000195H   000237H   0000A3H   BYTE   UNIT     XDATA          _XDATA_GROUP_
000238H   00023EH   000007H   BYTE   UNIT     XDATA          ?XD?USB_REQ_CLASS
00023FH   000242H   000004H   BYTE   UNIT     XDATA          ?XD?SYSTICK

* * * * * * * * *   R E M O V E D     S E G M E N T S   * * * * * * * *
   *DEL*:           000010H   BYTE   UNIT     CODE           ?PR?_LCD1602_DISPLAY_CHAR?1602LCD
   *DEL*:           000001H   BYTE   UNIT     XDATA          ?XD?_LCD1602_DISPLAY_CHAR?1602LCD
   *DEL*:           000013H   BYTE   UNIT     CODE           ?PR?_USB_BULK_INTR_OUT?USB
   *DEL*:           00000FH   BYTE   UNIT     CODE           ?PR?USB_OUT_DONE?USB
   *DEL*:           000033H   BYTE   UNIT     CODE           ?PR?_REVERSE4?UTIL
   *DEL*:           000008H   BYTE   UNIT     XDATA          ?XD?_REVERSE4?UTIL
   *DEL*:           000013H   BYTE   UNIT     CODE           ?PR?SEG7_SETHEADER?UTIL
   *DEL*:           000039H   BYTE   UNIT     CODE           ?PR?_SEG7_SHOWLONG?UTIL
   *DEL*:           000005H   BYTE   UNIT     XDATA          ?XD?_SEG7_SHOWLONG?UTIL
   *DEL*:           00001DH   BYTE   UNIT     CODE           ?PR?_SEG7_SHOWFLOAT?UTIL
   *DEL*:           000023H   BYTE   UNIT     CODE           ?PR?_SEG7_SHOWCODE?UTIL
   *DEL*:           00007BH   BYTE   UNIT     CODE           ?PR?_SEG7_SHOWSTRING?UTIL
   *DEL*:           000030H   BYTE   UNIT     XDATA          ?XD?_SEG7_SHOWSTRING?UTIL
   *DEL*:           00003EH   BYTE   UNIT     CODE           ?PR?_LED40_SENDDATA?UTIL
   *DEL*:           000001H   BYTE   UNIT     XDATA          ?XD?_LED40_SENDDATA?UTIL
   *DEL*:           000032H   BYTE   UNIT     CODE           ?PR?_LED40_SETPORT?UTIL
   *DEL*:           000030H   BYTE   UNIT     CODE           ?PR?_LED40_SETBIT?UTIL
   *DEL*:           00002EH   BYTE   UNIT     CODE           ?PR?_LED40_CLRBIT?UTIL
   *DEL*:           00003EH   BYTE   UNIT     CODE           ?PR?_LED64_SENDDATA?UTIL
   *DEL*:           000001H   BYTE   UNIT     XDATA          ?XD?_LED64_SENDDATA?UTIL
   *DEL*:           000032H   BYTE   UNIT     CODE           ?PR?_LED64_SETPORT?UTIL
   *DEL*:           000030H   BYTE   UNIT     CODE           ?PR?_LED64_SETBIT?UTIL
   *DEL*:           00002EH   BYTE   UNIT     CODE           ?PR?_LED64_CLRBIT?UTIL
   *DEL*:           000012H   BYTE   UNIT     CODE           ?PR?LCD12864_SETHEADER?UTIL
   *DEL*:           000016H   BYTE   UNIT     CODE           ?PR?LCD12864_DISPLAYOFF?UTIL
   *DEL*:           000018H   BYTE   UNIT     CODE           ?PR?LCD12864_DISPLAYON?UTIL
   *DEL*:           000016H   BYTE   UNIT     CODE           ?PR?LCD12864_CURSOROFF?UTIL
   *DEL*:           000018H   BYTE   UNIT     CODE           ?PR?LCD12864_CURSORON?UTIL
   *DEL*:           000016H   BYTE   UNIT     CODE           ?PR?LCD12864_CURSORMOVELEFT?UTIL
   *DEL*:           000018H   BYTE   UNIT     CODE           ?PR?LCD12864_CURSORMOVERIGHT?UTIL
   *DEL*:           000018H   BYTE   UNIT     CODE           ?PR?LCD12864_CURSORRETURNHOME?UTIL
LX51 LINKER/LOCATER V4.66.93.0                                                        12/24/2024  17:25:26  PAGE 5


   *DEL*:           000016H   BYTE   UNIT     CODE           ?PR?LCD12864_SCROLLLEFT?UTIL
   *DEL*:           000018H   BYTE   UNIT     CODE           ?PR?LCD12864_SCROLLRIGHT?UTIL
   *DEL*:           00001BH   BYTE   UNIT     CODE           ?PR?_LCD12864_SCROLLUP?UTIL
   *DEL*:           000016H   BYTE   UNIT     CODE           ?PR?LCD12864_AUTOWRAPOFF?UTIL
   *DEL*:           000018H   BYTE   UNIT     CODE           ?PR?LCD12864_AUTOWRAPON?UTIL
   *DEL*:           000017H   BYTE   UNIT     CODE           ?PR?_LCD12864_REVERSELINE?UTIL
   *DEL*:           000014H   BYTE   UNIT     CODE           ?PR?LCD12864_DISPLAYCLEAR?UTIL
   *DEL*:           0000B1H   BYTE   UNIT     CODE           ?PR?_LCD12864_SETBUFFER?UTIL
   *DEL*:           000008H   BYTE   UNIT     XDATA          ?XD?_LCD12864_SETBUFFER?UTIL
   *DEL*:           000050H   BYTE   UNIT     CODE           ?PR?_LCD12864_SHOWSTRING?UTIL
   *DEL*:           000005H   BYTE   UNIT     XDATA          ?XD?_LCD12864_SHOWSTRING?UTIL
   *DEL*:           000066H   BYTE   UNIT     CODE           ?PR?_LCD12864_SHOWPICTURE?UTIL
   *DEL*:           000007H   BYTE   UNIT     XDATA          ?XD?_LCD12864_SHOWPICTURE?UTIL
   *DEL*:           000013H   BYTE   UNIT     CODE           ?PR?OLED12864_SETHEADER?UTIL
   *DEL*:           000016H   BYTE   UNIT     CODE           ?PR?OLED12864_DISPLAYOFF?UTIL
   *DEL*:           000018H   BYTE   UNIT     CODE           ?PR?OLED12864_DISPLAYON?UTIL
   *DEL*:           000016H   BYTE   UNIT     CODE           ?PR?OLED12864_DISPLAYCONTENT?UTIL
   *DEL*:           000018H   BYTE   UNIT     CODE           ?PR?OLED12864_DISPLAYENTIRE?UTIL
   *DEL*:           000016H   BYTE   UNIT     CODE           ?PR?OLED12864_HORIZONTALMIRROR?UTIL
   *DEL*:           000018H   BYTE   UNIT     CODE           ?PR?OLED12864_VERTICALMIRROR?UTIL
   *DEL*:           000014H   BYTE   UNIT     CODE           ?PR?OLED12864_DISPLAYREVERSE?UTIL
   *DEL*:           000017H   BYTE   UNIT     CODE           ?PR?_OLED12864_SETCONTRAST?UTIL
   *DEL*:           000017H   BYTE   UNIT     CODE           ?PR?_OLED12864_SETADDRESSMODE?UTIL
   *DEL*:           000025H   BYTE   UNIT     CODE           ?PR?_OLED12864_SCROLLLEFT?UTIL
   *DEL*:           000026H   BYTE   UNIT     CODE           ?PR?_OLED12864_SCROLLRIGHT?UTIL
   *DEL*:           000026H   BYTE   UNIT     CODE           ?PR?_OLED12864_SCROLLUP?UTIL
   *DEL*:           000018H   BYTE   UNIT     CODE           ?PR?OLED12864_SCROLLSTART?UTIL
   *DEL*:           000016H   BYTE   UNIT     CODE           ?PR?OLED12864_SCROLLSTOP?UTIL
   *DEL*:           0000A9H   BYTE   UNIT     CODE           ?PR?_OLED12864_SETBUFFER?UTIL
   *DEL*:           000008H   BYTE   UNIT     XDATA          ?XD?_OLED12864_SETBUFFER?UTIL
   *DEL*:           00005AH   BYTE   UNIT     CODE           ?PR?_OLED12864_SHOWPICTURE?UTIL
   *DEL*:           000007H   BYTE   UNIT     XDATA          ?XD?_OLED12864_SHOWPICTURE?UTIL
   *DEL*:           00000CH   BYTE   UNIT     CODE           ?PR?I2C_START?I2C
   *DEL*:           00000CH   BYTE   UNIT     CODE           ?PR?I2C_STOP?I2C
   *DEL*:           000011H   BYTE   UNIT     CODE           ?PR?_I2C_SENDDATA?I2C
   *DEL*:           00000CH   BYTE   UNIT     CODE           ?PR?RECV_ACK?I2C
   *DEL*:           000011H   BYTE   UNIT     CODE           ?PR?I2C_RECVDATA?I2C
   *DEL*:           000011H   BYTE   UNIT     CODE           ?PR?I2C_SENDACK?I2C
   *DEL*:           000012H   BYTE   UNIT     CODE           ?PR?I2C_SENDNACK?I2C
   *DEL*:           000099H   BYTE   UNIT     CODE           ?PR?_AT24C04_WRITE_PAGE?AT24C04
   *DEL*:           00000BH   BYTE   UNIT     XDATA          ?XD?_AT24C04_WRITE_PAGE?AT24C04
   *DEL*:           000015H   BYTE   UNIT     CODE           ?PR?_STRLEN?STRLEN



OVERLAY MAP OF MODULE:   .\Objects\多功能电子秤 (?C_STARTUP)


FUNCTION/MODULE                             BIT_GROUP   DATA_GROUP   XDATA_GROUP
--> CALLED FUNCTION/MODULE                 START  STOP  START  STOP  START  STOP
================================================================================
?C_C51STARTUP                              ----- -----  ----- -----  ----- -----
  +--> MAIN/MAIN
  +--> ?C_INITSEG

MAIN/MAIN                                  ----- -----  ----- -----  ----- -----
  +--> APP_MAIN/APP_MAIN

APP_MAIN/APP_MAIN                          ----- -----  ----- -----  0195H 0196H
  +--> IO_INIT/APP_MAIN
  +--> USB_INIT/USB
  +--> TIMER0_INIT/SYSTICK
  +--> _DELAYTICK/SYSTICK
  +--> LCD1602_INIT/1602LCD
  +--> I2C_INIT/I2C
LX51 LINKER/LOCATER V4.66.93.0                                                        12/24/2024  17:25:26  PAGE 6


  +--> DISPLAY_PERSONINFO/APP_MAIN
  +--> READ_WEIGHT_BASE/HX711
  +--> _KEYSCAN/KEY_DETECT
  +--> COUNT_WEIGHT/APP_MAIN
  +--> TARE_WEIGHT/APP_MAIN
  +--> _WEIGHT_THRESHOLD/APP_MAIN
  +--> PAGE_SWITCHING/APP_MAIN
  +--> GET_TIKC/SYSTICK
  +--> LCD_DISPLAY_WEIGHT/APP_MAIN
  +--> LCD_DISPLAY_COUNT/APP_MAIN
  +--> OVERWEIGHT_ALARM/APP_MAIN
  +--> _LCD1602_WR_COMMAND/1602LCD

IO_INIT/APP_MAIN                           ----- -----  ----- -----  ----- -----

USB_INIT/USB                               ----- -----  ----- -----  ----- -----
  +--> _USB_WRITE_REG/USB

_USB_WRITE_REG/USB                         ----- -----  ----- -----  ----- -----

TIMER0_INIT/SYSTICK                        ----- -----  ----- -----  ----- -----

_DELAYTICK/SYSTICK                         ----- -----  ----- -----  01A1H 01A4H
  +--> GET_TIKC/SYSTICK

GET_TIKC/SYSTICK                           ----- -----  ----- -----  ----- -----

LCD1602_INIT/1602LCD                       ----- -----  ----- -----  ----- -----
  +--> _LCD1602_WR_COMMAND/1602LCD

_LCD1602_WR_COMMAND/1602LCD                ----- -----  ----- -----  019FH 019FH
  +--> LCD1602_RDBF/1602LCD
  +--> _DELAYTICK/SYSTICK

LCD1602_RDBF/1602LCD                       ----- -----  ----- -----  01A0H 01A0H
  +--> _DELAYTICK/SYSTICK

I2C_INIT/I2C                               ----- -----  ----- -----  ----- -----

DISPLAY_PERSONINFO/APP_MAIN                ----- -----  ----- -----  ----- -----
  +--> PRINTF/PRINTF
  +--> _LCD1602_DISPLAY_STRING/1602LCD
  +--> _DELAYTICK/SYSTICK
  +--> _LCD1602_WR_COMMAND/1602LCD

PRINTF/PRINTF                              21H.1 22H.1  000DH 0011H  0208H 0237H
  +--> PUTCHAR/PUTCHAR

PUTCHAR/PUTCHAR                            ----- -----  ----- -----  ----- -----

_LCD1602_DISPLAY_STRING/1602LCD            ----- -----  ----- -----  0197H 019AH
  +--> _LCD_SETCURSOR/1602LCD
  +--> _LCD1602_WR_DATA/1602LCD

_LCD_SETCURSOR/1602LCD                     ----- -----  ----- -----  019BH 019EH
  +--> _LCD1602_WR_COMMAND/1602LCD

_LCD1602_WR_DATA/1602LCD                   ----- -----  ----- -----  019BH 019BH
  +--> LCD1602_RDBF/1602LCD
  +--> _DELAYTICK/SYSTICK

READ_WEIGHT_BASE/HX711                     ----- -----  ----- -----  0197H 01A0H
  +--> READCOUNT/HX711
  +--> _DELAYTICK/SYSTICK

LX51 LINKER/LOCATER V4.66.93.0                                                        12/24/2024  17:25:26  PAGE 7


READCOUNT/HX711                            ----- -----  ----- -----  01A1H 01A4H

_KEYSCAN/KEY_DETECT                        ----- -----  ----- -----  ----- -----

COUNT_WEIGHT/APP_MAIN                      ----- -----  ----- -----  ----- -----
  +--> _READ_WEIGHT/HX711

_READ_WEIGHT/HX711                         ----- -----  ----- -----  0197H 01A0H
  +--> READCOUNT/HX711

TARE_WEIGHT/APP_MAIN                       ----- -----  ----- -----  ----- -----
  +--> _READ_WEIGHT/HX711
  +--> _PRINTF_USB/UTIL

_PRINTF_USB/UTIL                           ----- -----  ----- -----  0197H 01C6H
  +--> _VSPRINTF/VSPRINTF
  +--> _USB_IN/USB

_VSPRINTF/VSPRINTF                         ----- -----  ----- -----  01C7H 01CCH
  +--> PRINTF/PRINTF

_USB_IN/USB                                ----- -----  ----- -----  01C7H 01CDH
  +--> _USB_WRITE_REG/USB
  +--> _USB_READ_REG/USB
  +--> _USB_BULK_INTR_IN/USB

_USB_READ_REG/USB                          ----- -----  ----- -----  ----- -----
  +--> _USB_WRITE_REG/USB

_USB_BULK_INTR_IN/USB                      ----- -----  ----- -----  0212H 0216H
  +--> _USB_WRITE_REG/USB

_WEIGHT_THRESHOLD/APP_MAIN                 ----- -----  ----- -----  ----- -----
  +--> _READ_WEIGHT/HX711

PAGE_SWITCHING/APP_MAIN                    ----- -----  ----- -----  ----- -----
  +--> _LCD1602_WR_COMMAND/1602LCD

LCD_DISPLAY_WEIGHT/APP_MAIN                ----- -----  ----- -----  ----- -----
  +--> _LCD1602_DISPLAY_STRING/1602LCD
  +--> PRINTF/PRINTF
  +--> GET_TIKC/SYSTICK
  +--> _READ_WEIGHT/HX711
  +--> _PRINTF_USB/UTIL

LCD_DISPLAY_COUNT/APP_MAIN                 ----- -----  ----- -----  ----- -----
  +--> _LCD1602_DISPLAY_STRING/1602LCD
  +--> GET_TIKC/SYSTICK
  +--> _READ_WEIGHT/HX711
  +--> _PRINTF_USB/UTIL
  +--> PRINTF/PRINTF

OVERWEIGHT_ALARM/APP_MAIN                  ----- -----  ----- -----  ----- -----
  +--> _LCD1602_DISPLAY_STRING/1602LCD
  +--> _READ_WEIGHT/HX711
  +--> PRINTF/PRINTF
  +--> GET_TIKC/SYSTICK
  +--> _PRINTF_USB/UTIL

?C_INITSEG                                 ----- -----  ----- -----  ----- -----

*** NEW ROOT *****************************

I2C_ISR/APP_MAIN                           ----- -----  ----- -----  ----- -----

LX51 LINKER/LOCATER V4.66.93.0                                                        12/24/2024  17:25:26  PAGE 8


*** NEW ROOT *****************************

TIMER0_ISR/SYSTICK                         ----- -----  ----- -----  ----- -----

*** NEW ROOT *****************************

USB_ISR/USB                                ----- -----  ----- -----  01FDH 0200H
  +--> _USB_READ_REG/USB
  +--> USB_RESUME/USB
  +--> USB_RESET/USB
  +--> USB_SETUP/USB
  +--> USB_IN_EP1/USB
  +--> USB_IN_EP2/USB
  +--> USB_OUT_EP1/USB
  +--> USB_SUSPEND/USB

USB_RESUME/USB                             ----- -----  ----- -----  ----- -----

USB_RESET/USB                              ----- -----  ----- -----  ----- -----
  +--> _USB_WRITE_REG/USB

USB_SETUP/USB                              ----- -----  ----- -----  ----- -----
  +--> _USB_READ_REG/USB
  +--> _USB_WRITE_REG/USB
  +--> _USB_READ_FIFO/USB
  +--> _REVERSE2/UTIL
  +--> USB_REQ_STD/USB_REQ_STD
  +--> USB_REQ_CLASS/USB_REQ_CLASS
  +--> USB_REQ_VENDOR/USB_REQ_VENDOR
  +--> USB_SETUP_STALL/USB
  +--> USB_CTRL_IN/USB
  +--> USB_CTRL_OUT/USB

_USB_READ_FIFO/USB                         ----- -----  ----- -----  0202H 0204H
  +--> _USB_READ_REG/USB

_REVERSE2/UTIL                             ----- -----  ----- -----  0201H 0204H

USB_REQ_STD/USB_REQ_STD                    ----- -----  ----- -----  ----- -----
  +--> USB_GET_STATUS/USB_REQ_STD
  +--> USB_CLEAR_FEATURE/USB_REQ_STD
  +--> USB_SET_FEATURE/USB_REQ_STD
  +--> USB_SET_ADDRESS/USB_REQ_STD
  +--> USB_GET_DESCRIPTOR/USB_REQ_STD
  +--> USB_SET_DESCRIPTOR/USB_REQ_STD
  +--> USB_GET_CONFIGURATION/USB_REQ_STD
  +--> USB_SET_CONFIGURATION/USB_REQ_STD
  +--> USB_GET_INTERFACE/USB_REQ_STD
  +--> USB_SET_INTERFACE/USB_REQ_STD
  +--> USB_SYNCH_FRAME/USB_REQ_STD
  +--> USB_SETUP_STALL/USB

USB_GET_STATUS/USB_REQ_STD                 ----- -----  ----- -----  0201H 0201H
  +--> USB_SETUP_STALL/USB
  +--> USB_SETUP_IN/USB

USB_SETUP_STALL/USB                        ----- -----  ----- -----  ----- -----
  +--> _USB_WRITE_REG/USB

USB_SETUP_IN/USB                           ----- -----  ----- -----  ----- -----
  +--> _USB_WRITE_REG/USB
  +--> USB_CTRL_IN/USB

USB_CTRL_IN/USB                            ----- -----  ----- -----  0202H 0202H
  +--> _USB_READ_REG/USB
LX51 LINKER/LOCATER V4.66.93.0                                                        12/24/2024  17:25:26  PAGE 9


  +--> _USB_WRITE_FIFO/USB
  +--> _USB_WRITE_REG/USB

_USB_WRITE_FIFO/USB                        ----- -----  ----- -----  0203H 0207H
  +--> _USB_WRITE_REG/USB

USB_CLEAR_FEATURE/USB_REQ_STD              ----- -----  ----- -----  0201H 0201H
  +--> _USB_WRITE_REG/USB
  +--> USB_SETUP_STALL/USB
  +--> USB_SETUP_STATUS/USB

USB_SETUP_STATUS/USB                       ----- -----  ----- -----  ----- -----
  +--> _USB_WRITE_REG/USB

USB_SET_FEATURE/USB_REQ_STD                ----- -----  ----- -----  0201H 0201H
  +--> _USB_WRITE_REG/USB
  +--> USB_SETUP_STALL/USB
  +--> USB_SETUP_STATUS/USB

USB_SET_ADDRESS/USB_REQ_STD                ----- -----  ----- -----  0201H 0201H
  +--> USB_SETUP_STALL/USB
  +--> _USB_WRITE_REG/USB
  +--> USB_SETUP_STATUS/USB

USB_GET_DESCRIPTOR/USB_REQ_STD             ----- -----  ----- -----  ----- -----
  +--> USB_SETUP_STALL/USB
  +--> USB_SETUP_IN/USB

USB_SET_DESCRIPTOR/USB_REQ_STD             ----- -----  ----- -----  ----- -----
  +--> USB_SETUP_STALL/USB

USB_GET_CONFIGURATION/USB_REQ_STD          ----- -----  ----- -----  ----- -----
  +--> USB_SETUP_STALL/USB
  +--> USB_SETUP_IN/USB

USB_SET_CONFIGURATION/USB_REQ_STD          ----- -----  ----- -----  ----- -----
  +--> USB_SETUP_STALL/USB
  +--> _USB_WRITE_REG/USB
  +--> USB_SETUP_STATUS/USB

USB_GET_INTERFACE/USB_REQ_STD              ----- -----  ----- -----  ----- -----
  +--> USB_SETUP_STALL/USB
  +--> USB_SETUP_IN/USB

USB_SET_INTERFACE/USB_REQ_STD              ----- -----  ----- -----  ----- -----
  +--> USB_SETUP_STALL/USB
  +--> USB_SETUP_STATUS/USB

USB_SYNCH_FRAME/USB_REQ_STD                ----- -----  ----- -----  ----- -----
  +--> USB_SETUP_STALL/USB

USB_REQ_CLASS/USB_REQ_CLASS                ----- -----  ----- -----  ----- -----
  +--> USB_SET_LINE_CODING/USB_REQ_CLASS
  +--> USB_GET_LINE_CODING/USB_REQ_CLASS
  +--> USB_SET_CTRL_LINE_STATE/USB_REQ_CLASS
  +--> USB_SETUP_STALL/USB

USB_SET_LINE_CODING/USB_REQ_CLASS          ----- -----  ----- -----  ----- -----
  +--> USB_SETUP_STALL/USB
  +--> USB_SETUP_OUT/USB

USB_SETUP_OUT/USB                          ----- -----  ----- -----  ----- -----
  +--> _USB_WRITE_REG/USB

USB_GET_LINE_CODING/USB_REQ_CLASS          ----- -----  ----- -----  ----- -----
LX51 LINKER/LOCATER V4.66.93.0                                                        12/24/2024  17:25:26  PAGE 10


  +--> USB_SETUP_STALL/USB
  +--> USB_SETUP_IN/USB

USB_SET_CTRL_LINE_STATE/USB_REQ_CLASS      ----- -----  ----- -----  ----- -----
  +--> USB_SETUP_STALL/USB
  +--> USB_SETUP_STATUS/USB

USB_REQ_VENDOR/USB_REQ_VENDOR              ----- -----  ----- -----  ----- -----
  +--> USB_SETUP_STALL/USB

USB_CTRL_OUT/USB                           ----- -----  ----- -----  ----- -----
  +--> _USB_READ_REG/USB
  +--> _USB_READ_FIFO/USB
  +--> _USB_WRITE_REG/USB

USB_IN_EP1/USB                             ----- -----  ----- -----  ----- -----
  +--> _USB_READ_REG/USB
  +--> _USB_WRITE_REG/USB

USB_IN_EP2/USB                             ----- -----  ----- -----  ----- -----
  +--> _USB_READ_REG/USB
  +--> _USB_WRITE_REG/USB

USB_OUT_EP1/USB                            ----- -----  ----- -----  0201H 0201H
  +--> _USB_WRITE_REG/USB
  +--> _USB_READ_REG/USB
  +--> _USB_READ_FIFO/USB
  +--> _SLEEP_MS/UTIL
  +--> USB_OUT_CALLBACK/APP_MAIN

_SLEEP_MS/UTIL                             ----- -----  ----- -----  ----- -----
  +--> _SLEEP_US/UTIL

_SLEEP_US/UTIL                             ----- -----  ----- -----  ----- -----

USB_OUT_CALLBACK/APP_MAIN                  ----- -----  ----- -----  ----- -----
  +--> _USB_SET_WEIGHT_K/APP_MAIN

_USB_SET_WEIGHT_K/APP_MAIN                 ----- -----  ----- -----  0202H 0207H
  +--> PRINTF/PRINTF
  +--> _USB_SENDDATA/USB

_USB_SENDDATA/USB                          ----- -----  ----- -----  0208H 0211H
  +--> _USB_WRITE_REG/USB
  +--> _USB_READ_REG/USB
  +--> _USB_BULK_INTR_IN/USB

USB_SUSPEND/USB                            ----- -----  ----- -----  ----- -----



PUBLIC SYMBOLS OF MODULE:  .\Objects\多功能电子秤 (?C_STARTUP)


      VALUE       CLASS    TYPE      PUBLIC SYMBOL NAME
      =================================================
*DEL*:00000000H   XDATA    BYTE      ?_AT24C04_Write_Page?BYTE
*DEL*:00000000H   XDATA    BYTE      ?_LCD12864_ShowPicture?BYTE
*DEL*:00000000H   XDATA    BYTE      ?_OLED12864_ShowPicture?BYTE
      02000208H   XDATA    ---       ?_PRINTF?BYTE
      02000197H   XDATA    BYTE      ?_printf_usb?BYTE
      02000197H   XDATA    BYTE      ?_read_weight?BYTE
*DEL*:00000000H   XDATA    BYTE      ?_SEG7_ShowLong?BYTE
*DEL*:00000000H   XDATA    BYTE      ?_SEG7_ShowString?BYTE
      02000208H   XDATA    ---       ?_SPRINTF?BYTE
LX51 LINKER/LOCATER V4.66.93.0                                                        12/24/2024  17:25:26  PAGE 11


      02000212H   XDATA    BYTE      ?_usb_bulk_intr_in?BYTE
      02000202H   XDATA    BYTE      ?_usb_set_weight_K?BYTE
      02000203H   XDATA    BYTE      ?_usb_write_fifo?BYTE
      020101C4H   XDATA    ---       ?_VSPRINTF?BYTE
      010008E7H   CODE     ---       ?C?CCASE
      01000677H   CODE     ---       ?C?CLDOPTR
      0100065EH   CODE     ---       ?C?CLDPTR
      00000000H   NUMBER   ---       ?C?CODESEG
      01000638H   CODE     ---       ?C?COPY
      010006A4H   CODE     ---       ?C?CSTPTR
      01000217H   CODE     ---       ?C?FPADD
      0100010BH   CODE     ---       ?C?FPCONVERT
      01000411H   CODE     ---       ?C?FPDIV
      0100051EH   CODE     ---       ?C?FPGETOPN2
      01000308H   CODE     ---       ?C?FPMUL
      01000553H   CODE     ---       ?C?FPNANRESULT
      0100055DH   CODE     ---       ?C?FPOVERFLOW
      01000535H   CODE     ---       ?C?FPRESULT
      01000549H   CODE     ---       ?C?FPRESULT2
      010000CEH   CODE     ---       ?C?FPROUND
      01000213H   CODE     ---       ?C?FPSUB
      0100055AH   CODE     ---       ?C?FPUNDERFLOW
      010004DEH   CODE     ---       ?C?FTNPWR
      0100071DH   CODE     ---       ?C?IILDX
      01000733H   CODE     ---       ?C?ILDIX
      010006B6H   CODE     ---       ?C?IMUL
      0100090DH   CODE     ---       ?C?LIMUL
      01000749H   CODE     ---       ?C?LMUL
      01000877H   CODE     ---       ?C?LSHL
      01000896H   CODE     ---       ?C?LSTKXDATA
      0100088AH   CODE     ---       ?C?LSTXDATA
      010008C7H   CODE     ---       ?C?PLDIXDATA
      010008DEH   CODE     ---       ?C?PSTXDATA
      010006C8H   CODE     ---       ?C?UIDIV
      01000866H   CODE     ---       ?C?ULCMP
      010007D4H   CODE     ---       ?C?ULDIV
      00000000H   NUMBER   ---       ?C?XDATASEG
      01001C22H   CODE     ---       ?C_START
      01000000H   CODE     ---       ?C_STARTUP
*DEL*:00000000H   CODE     ---       _AT24C04_Write_Page
      0100241FH   CODE     ---       _DelayTick
*DEL*:00000000H   CODE     ---       _I2C_SendData
      0100263BH   CODE     ---       _keyScan
*DEL*:00000000H   CODE     ---       _LCD12864_ReverseLine
*DEL*:00000000H   CODE     ---       _LCD12864_ScrollUp
*DEL*:00000000H   CODE     ---       _LCD12864_ShowPicture
*DEL*:00000000H   CODE     ---       _LCD12864_ShowString
*DEL*:00000000H   CODE     ---       _LCD1602_Display_Char
      01002458H   CODE     ---       _LCD1602_Display_String
      010025E6H   CODE     ---       _LCD1602_Wr_Command
      010025BAH   CODE     ---       _LCD1602_Wr_Data
      0100248FH   CODE     ---       _LCD_SetCursor
*DEL*:00000000H   CODE     ---       _LED40_ClrBit
*DEL*:00000000H   CODE     ---       _LED40_SendData
*DEL*:00000000H   CODE     ---       _LED40_SetBit
*DEL*:00000000H   CODE     ---       _LED40_SetPort
*DEL*:00000000H   CODE     ---       _LED64_ClrBit
*DEL*:00000000H   CODE     ---       _LED64_SendData
*DEL*:00000000H   CODE     ---       _LED64_SetBit
*DEL*:00000000H   CODE     ---       _LED64_SetPort
*DEL*:00000000H   CODE     ---       _OLED12864_ScrollLeft
*DEL*:00000000H   CODE     ---       _OLED12864_ScrollRight
*DEL*:00000000H   CODE     ---       _OLED12864_ScrollUp
*DEL*:00000000H   CODE     ---       _OLED12864_SetAddressMode
*DEL*:00000000H   CODE     ---       _OLED12864_SetContrast
LX51 LINKER/LOCATER V4.66.93.0                                                        12/24/2024  17:25:26  PAGE 12


*DEL*:00000000H   CODE     ---       _OLED12864_ShowPicture
      010009A5H   CODE     ---       _PRINTF
      01002035H   CODE     ---       _printf_usb
      01002662H   CODE     ---       _PUTCHAR
      01001D79H   CODE     ---       _read_weight
      01002724H   CODE     ---       _reverse2
*DEL*:00000000H   CODE     ---       _reverse4
*DEL*:00000000H   CODE     ---       _SEG7_ShowCode
*DEL*:00000000H   CODE     ---       _SEG7_ShowFloat
*DEL*:00000000H   CODE     ---       _SEG7_ShowLong
*DEL*:00000000H   CODE     ---       _SEG7_ShowString
      010027A9H   CODE     ---       _sleep_ms
      010026CBH   CODE     ---       _sleep_us
      0100099FH   CODE     ---       _SPRINTF
*DEL*:00000000H   CODE     ---       _STRLEN
      0100232DH   CODE     ---       _usb_bulk_intr_in
*DEL*:00000000H   CODE     ---       _usb_bulk_intr_out
      01001B4EH   CODE     ---       _usb_IN
      010023E5H   CODE     ---       _usb_read_fifo
      01002765H   CODE     ---       _usb_read_reg
      01001975H   CODE     ---       _USB_SendData
      0100169CH   CODE     ---       _usb_set_weight_K
      010024C4H   CODE     ---       _usb_write_fifo
      01002715H   CODE     ---       _usb_write_reg
      01002293H   CODE     ---       _VSPRINTF
      01001F5FH   CODE     ---       _Weight_threshold
*SFR* 000000D0H.6 DATA     BIT       AC
*SFR* 000000E0H   DATA     BYTE      ACC
*SFR* 000000BCH   DATA     BYTE      ADC_CONTR
*SFR* 000000BDH   DATA     BYTE      ADC_RES
*SFR* 000000BEH   DATA     BYTE      ADC_RESL
*SFR* 000000DEH   DATA     BYTE      ADCCFG
*SFR* 00000090H.1 DATA     BIT       ADDO
*SFR* 000000C0H.7 DATA     BIT       ADSK
      01001329H   CODE     ---       app_main
*SFR* 000000EFH   DATA     BYTE      AUXINTIF
*SFR* 0000008EH   DATA     BYTE      AUXR
*SFR* 000000F0H   DATA     BYTE      B
*SFR* 000000A0H.4 DATA     BIT       BEEP
      02000187H   XDATA    DWORD     beep_net_time
*SFR* 000000A1H   DATA     BYTE      BUS_SPEED
      00000023H.0 BIT      BIT       bUsbFeatureReady
      00000023H.1 BIT      BIT       bUsbInBusy
      00000022H.7 BIT      BIT       bUsbOutReady
*SFR* 000000E6H   DATA     BYTE      CMPCR1
*SFR* 000000E7H   DATA     BYTE      CMPCR2
      0100292FH   CONST    ---       CONFIGDESC
      0100214DH   CODE     ---       Count_weight
*SFR* 000000D0H.7 DATA     BIT       CY
      0100291DH   CONST    ---       DEVICEDESC
      0200008AH   XDATA    BYTE      DeviceState
      01001DF9H   CODE     ---       Display_PersonInfo
*SFR* 00000083H   DATA     BYTE      DPH
*SFR* 000000E5H   DATA     BYTE      DPH1
*SFR* 00000082H   DATA     BYTE      DPL
*SFR* 000000E4H   DATA     BYTE      DPL1
*SFR* 000000E3H   DATA     BYTE      DPS
*SFR* 000000A8H.7 DATA     BIT       EA
*SFR* 000000A8H.5 DATA     BIT       EADC
*SFR* 000000A8H.6 DATA     BIT       ELVD
      020000CBH   XDATA    ---       Ep0State
*SFR* 000000A8H.4 DATA     BIT       ES
*SFR* 000000A8H.1 DATA     BIT       ET0
*SFR* 000000A8H.3 DATA     BIT       ET1
*SFR* 000000A8H.0 DATA     BIT       EX0
LX51 LINKER/LOCATER V4.66.93.0                                                        12/24/2024  17:25:26  PAGE 13


*SFR* 000000A8H.2 DATA     BIT       EX1
*SFR* 000000D0H.5 DATA     BIT       F0
*SFR* 000000D0H.1 DATA     BIT       F1
      010027FEH   CODE     ---       Get_Tikc
      0100280DH   CODE     ---       I2C_Init
      01002790H   CODE     ---       I2C_Isr
*DEL*:00000000H   CODE     ---       I2C_RecvData
*DEL*:00000000H   CODE     ---       I2C_SendAck
*DEL*:00000000H   CODE     ---       I2C_SendNAck
*DEL*:00000000H   CODE     ---       I2C_Start
*DEL*:00000000H   CODE     ---       I2C_Stop
*SFR* 000000C3H   DATA     BYTE      IAP_ADDRH
*SFR* 000000C4H   DATA     BYTE      IAP_ADDRL
*SFR* 000000C5H   DATA     BYTE      IAP_CMD
*SFR* 000000C7H   DATA     BYTE      IAP_CONTR
*SFR* 000000C2H   DATA     BYTE      IAP_DATA
*SFR* 000000F5H   DATA     BYTE      IAP_TPS
*SFR* 000000C6H   DATA     BYTE      IAP_TRIG
*SFR* 000000A8H   DATA     BYTE      IE
*SFR* 00000088H.1 DATA     BIT       IE0
*SFR* 00000088H.3 DATA     BIT       IE1
*SFR* 000000AFH   DATA     BYTE      IE2
      020000D1H   XDATA    BYTE      InEpState
*SFR* 000000B0H.2 DATA     BIT       INT0
*SFR* 000000B0H.3 DATA     BIT       INT1
*SFR* 0000008FH   DATA     BYTE      INTCLKO
      01002689H   CODE     ---       IO_Init
*SFR* 000000B8H   DATA     BYTE      IP
*SFR* 000000B5H   DATA     BYTE      IP2
*SFR* 000000B6H   DATA     BYTE      IP2H
*SFR* 000000DFH   DATA     BYTE      IP3
*SFR* 000000EEH   DATA     BYTE      IP3H
*SFR* 000000B7H   DATA     BYTE      IPH
*SFR* 0000009DH   DATA     BYTE      IRCBAND
*SFR* 0000009FH   DATA     BYTE      IRTRIM
*SFR* 00000088H.0 DATA     BIT       IT0
*SFR* 00000088H.2 DATA     BIT       IT1
      02000193H   XDATA    WORD      Item_Count
*SFR* 000000B0H.6 DATA     BIT       Key1
      020000D5H   XDATA    BYTE      Key1_cnt
      00000022H.3 BIT      BIT       Key1_event
*SFR* 000000C0H.6 DATA     BIT       Key2
      020000D6H   XDATA    BYTE      Key2_cnt
      00000022H.4 BIT      BIT       Key2_event
*SFR* 000000A0H.3 DATA     BIT       Key3
      020000D9H   XDATA    BYTE      Key3_cnt
      00000022H.5 BIT      BIT       Key3_event
*SFR* 00000090H.0 DATA     BIT       Key4
      0200011AH   XDATA    BYTE      Key4_cnt
      00000022H.6 BIT      BIT       Key4_event
      01002972H   CONST    ---       LANGIDDESC
*DEL*:00000000H   CODE     ---       LCD12864_AutoWrapOff
*DEL*:00000000H   CODE     ---       LCD12864_AutoWrapOn
*DEL*:00000000H   CODE     ---       LCD12864_CursorMoveLeft
*DEL*:00000000H   CODE     ---       LCD12864_CursorMoveRight
*DEL*:00000000H   CODE     ---       LCD12864_CursorOff
*DEL*:00000000H   CODE     ---       LCD12864_CursorOn
*DEL*:00000000H   CODE     ---       LCD12864_CursorReturnHome
*DEL*:00000000H   CODE     ---       LCD12864_DisplayClear
*DEL*:00000000H   CODE     ---       LCD12864_DisplayOff
*DEL*:00000000H   CODE     ---       LCD12864_DisplayOn
*DEL*:00000000H   CODE     ---       LCD12864_ScrollLeft
*DEL*:00000000H   CODE     ---       LCD12864_ScrollRight
      010027D7H   CODE     ---       LCD1602_Init
      0100255DH   CODE     ---       LCD1602_RDbf
LX51 LINKER/LOCATER V4.66.93.0                                                        12/24/2024  17:25:26  PAGE 14


*SFR* 000000A0H.7 DATA     BIT       LCD_1602_E
*SFR* 000000A0H.5 DATA     BIT       LCD_1602_RS
*SFR* 000000A0H.6 DATA     BIT       LCD_1602_RW
      01000DBDH   CODE     ---       LCD_Display_Count
      010011B9H   CODE     ---       LCD_Display_Weight
      0200016FH   XDATA    ---       LCDstr
*SFR* 000000A0H.0 DATA     BIT       LED1
*SFR* 000000C8H.0 DATA     BIT       LED2
*SFR* 000000B0H.4 DATA     BIT       LED3
      02000238H   XDATA    ---       LineCoding
*SFR* 0000009EH   DATA     BYTE      LIRTRIM
      01000003H   CODE     ---       main
      01002976H   CONST    ---       MANUFACTDESC
*SFR* 000000EDH   DATA     BYTE      MDU32CR
*SFR* 000000DDH   DATA     BYTE      MDU32SR
*DEL*:00000000H   CODE     ---       OLED12864_DisplayContent
*DEL*:00000000H   CODE     ---       OLED12864_DisplayEntire
*DEL*:00000000H   CODE     ---       OLED12864_DisplayOff
*DEL*:00000000H   CODE     ---       OLED12864_DisplayOn
*DEL*:00000000H   CODE     ---       OLED12864_DisplayReverse
*DEL*:00000000H   CODE     ---       OLED12864_HorizontalMirror
*DEL*:00000000H   CODE     ---       OLED12864_ScrollStart
*DEL*:00000000H   CODE     ---       OLED12864_ScrollStop
*DEL*:00000000H   CODE     ---       OLED12864_VerticalMirror
      020000D2H   XDATA    BYTE      OutEpState
      02000008H   XDATA    BYTE      OutNumber
*SFR* 000000D0H.2 DATA     BIT       OV
      01000FE6H   CODE     ---       Overweight_alarm
*SFR* 000000D0H.0 DATA     BIT       P
*SFR* 00000080H   DATA     BYTE      P0
*SFR* 00000080H.0 DATA     BIT       P00
*SFR* 00000080H.1 DATA     BIT       P01
*SFR* 00000080H.2 DATA     BIT       P02
*SFR* 00000080H.3 DATA     BIT       P03
*SFR* 00000080H.4 DATA     BIT       P04
*SFR* 00000080H.5 DATA     BIT       P05
*SFR* 00000080H.6 DATA     BIT       P06
*SFR* 00000080H.7 DATA     BIT       P07
*SFR* 00000094H   DATA     BYTE      P0M0
*SFR* 00000093H   DATA     BYTE      P0M1
*SFR* 00000090H   DATA     BYTE      P1
*SFR* 00000090H.0 DATA     BIT       P10
*SFR* 00000090H.1 DATA     BIT       P11
*SFR* 00000090H.2 DATA     BIT       P12
*SFR* 00000090H.3 DATA     BIT       P13
*SFR* 00000090H.4 DATA     BIT       P14
*SFR* 00000090H.5 DATA     BIT       P15
*SFR* 00000090H.6 DATA     BIT       P16
*SFR* 00000090H.7 DATA     BIT       P17
*SFR* 00000092H   DATA     BYTE      P1M0
*SFR* 00000091H   DATA     BYTE      P1M1
*SFR* 000000A0H   DATA     BYTE      P2
*SFR* 000000A0H.0 DATA     BIT       P20
*SFR* 000000A0H.1 DATA     BIT       P21
*SFR* 000000A0H.2 DATA     BIT       P22
*SFR* 000000A0H.3 DATA     BIT       P23
*SFR* 000000A0H.4 DATA     BIT       P24
*SFR* 000000A0H.5 DATA     BIT       P25
*SFR* 000000A0H.6 DATA     BIT       P26
*SFR* 000000A0H.7 DATA     BIT       P27
*SFR* 00000096H   DATA     BYTE      P2M0
*SFR* 00000095H   DATA     BYTE      P2M1
*SFR* 000000B0H   DATA     BYTE      P3
*SFR* 000000B0H.0 DATA     BIT       P30
*SFR* 000000B0H.1 DATA     BIT       P31
LX51 LINKER/LOCATER V4.66.93.0                                                        12/24/2024  17:25:26  PAGE 15


*SFR* 000000B0H.2 DATA     BIT       P32
*SFR* 000000B0H.3 DATA     BIT       P33
*SFR* 000000B0H.4 DATA     BIT       P34
*SFR* 000000B0H.5 DATA     BIT       P35
*SFR* 000000B0H.6 DATA     BIT       P36
*SFR* 000000B0H.7 DATA     BIT       P37
*SFR* 000000B2H   DATA     BYTE      P3M0
*SFR* 000000B1H   DATA     BYTE      P3M1
*SFR* 000000C0H   DATA     BYTE      P4
*SFR* 000000C0H.0 DATA     BIT       P40
*SFR* 000000C0H.1 DATA     BIT       P41
*SFR* 000000C0H.2 DATA     BIT       P42
*SFR* 000000C0H.3 DATA     BIT       P43
*SFR* 000000C0H.4 DATA     BIT       P44
*SFR* 000000C0H.5 DATA     BIT       P45
*SFR* 000000C0H.6 DATA     BIT       P46
*SFR* 000000C0H.7 DATA     BIT       P47
*SFR* 000000B4H   DATA     BYTE      P4M0
*SFR* 000000B3H   DATA     BYTE      P4M1
*SFR* 000000C8H   DATA     BYTE      P5
*SFR* 000000C8H.0 DATA     BIT       P50
*SFR* 000000C8H.1 DATA     BIT       P51
*SFR* 000000C8H.2 DATA     BIT       P52
*SFR* 000000C8H.3 DATA     BIT       P53
*SFR* 000000C8H.4 DATA     BIT       P54
*SFR* 000000C8H.5 DATA     BIT       P55
*SFR* 000000C8H.6 DATA     BIT       P56
*SFR* 000000C8H.7 DATA     BIT       P57
*SFR* 000000CAH   DATA     BYTE      P5M0
*SFR* 000000C9H   DATA     BYTE      P5M1
*SFR* 000000E8H   DATA     BYTE      P6
*SFR* 000000E8H.0 DATA     BIT       P60
*SFR* 000000E8H.1 DATA     BIT       P61
*SFR* 000000E8H.2 DATA     BIT       P62
*SFR* 000000E8H.3 DATA     BIT       P63
*SFR* 000000E8H.4 DATA     BIT       P64
*SFR* 000000E8H.5 DATA     BIT       P65
*SFR* 000000E8H.6 DATA     BIT       P66
*SFR* 000000E8H.7 DATA     BIT       P67
*SFR* 000000CCH   DATA     BYTE      P6M0
*SFR* 000000CBH   DATA     BYTE      P6M1
*SFR* 000000F8H   DATA     BYTE      P7
*SFR* 000000F8H.0 DATA     BIT       P70
*SFR* 000000F8H.1 DATA     BIT       P71
*SFR* 000000F8H.2 DATA     BIT       P72
*SFR* 000000F8H.3 DATA     BIT       P73
*SFR* 000000F8H.4 DATA     BIT       P74
*SFR* 000000F8H.5 DATA     BIT       P75
*SFR* 000000F8H.6 DATA     BIT       P76
*SFR* 000000F8H.7 DATA     BIT       P77
*SFR* 000000E2H   DATA     BYTE      P7M0
*SFR* 000000E1H   DATA     BYTE      P7M1
*SFR* 000000A2H   DATA     BYTE      P_SW1
*SFR* 000000BAH   DATA     BYTE      P_SW2
      0100299CH   CONST    ---       PACKET0
      0100299EH   CONST    ---       PACKET1
*SFR* 000000B8H.5 DATA     BIT       PADC
      020000D3H   XDATA    INT       Page
      0100258CH   CODE     ---       Page_Switching
*SFR* 00000087H   DATA     BYTE      PCON
*SFR* 000000DCH   DATA     BYTE      PLLCR
*SFR* 000000B8H.6 DATA     BIT       PLVD
      0200017EH   XDATA    WORD      poll_beep_time
      0200016BH   XDATA    DWORD     poll_neg_t
      0100297EH   CONST    ---       PRODUCTDESC
LX51 LINKER/LOCATER V4.66.93.0                                                        12/24/2024  17:25:26  PAGE 16


*SFR* 000000B8H.4 DATA     BIT       PS
*SFR* 000000D0H   DATA     BYTE      PSW
*SFR* 000000B8H.1 DATA     BIT       PT0
*SFR* 000000B8H.3 DATA     BIT       PT1
*SFR* 000000B8H.0 DATA     BIT       PX0
*SFR* 000000B8H.2 DATA     BIT       PX1
*SFR* 00000098H.2 DATA     BIT       RB8
*SFR* 000000B0H.7 DATA     BIT       RD
      01001835H   CODE     ---       read_weight_base
      01001CF0H   CODE     ---       ReadCount
*DEL*:00000000H   CODE     ---       Recv_Ack
*SFR* 00000098H.4 DATA     BIT       REN
*SFR* 00000098H.0 DATA     BIT       RI
*SFR* 000000D0H.3 DATA     BIT       RS0
*SFR* 000000D0H.4 DATA     BIT       RS1
*SFR* 000000FFH   DATA     BYTE      RSTCFG
*SFR* 000000B0H.0 DATA     BIT       RXD
*SFR* 0000009BH   DATA     BYTE      S2BUF
*SFR* 0000009AH   DATA     BYTE      S2CON
*SFR* 000000ADH   DATA     BYTE      S3BUF
*SFR* 000000ACH   DATA     BYTE      S3CON
*SFR* 00000085H   DATA     BYTE      S4BUF
*SFR* 00000084H   DATA     BYTE      S4CON
*SFR* 000000A9H   DATA     BYTE      SADDR
*SFR* 000000B9H   DATA     BYTE      SADEN
*SFR* 00000099H   DATA     BYTE      SBUF
*SFR* 00000090H.5 DATA     BIT       SCL
*SFR* 00000098H   DATA     BYTE      SCON
*SFR* 00000090H.4 DATA     BIT       SDA
      02000000H   XDATA    ---       Setup
*SFR* 00000098H.7 DATA     BIT       SM0
*SFR* 00000098H.6 DATA     BIT       SM1
*SFR* 00000098H.5 DATA     BIT       SM2
*SFR* 00000081H   DATA     BYTE      SP
*SFR* 000000CEH   DATA     BYTE      SPCTL
*SFR* 000000CFH   DATA     BYTE      SPDAT
*SFR* 000000CDH   DATA     BYTE      SPSTAT
*SFR* 000000B0H.4 DATA     BIT       T0
*SFR* 000000B0H.5 DATA     BIT       T1
*SFR* 000000D6H   DATA     BYTE      T2H
*SFR* 000000D7H   DATA     BYTE      T2L
*SFR* 000000D4H   DATA     BYTE      T3H
*SFR* 000000D5H   DATA     BYTE      T3L
*SFR* 000000D1H   DATA     BYTE      T3T4M
*SFR* 000000D2H   DATA     BYTE      T4H
*SFR* 000000D3H   DATA     BYTE      T4L
*SFR* 000000D1H   DATA     BYTE      T4T3M
*SFR* 000000AEH   DATA     BYTE      TA
      010022DDH   CODE     ---       tare_weight
*SFR* 00000098H.3 DATA     BIT       TB8
*SFR* 00000088H   DATA     BYTE      TCON
*SFR* 00000088H.5 DATA     BIT       TF0
*SFR* 00000088H.7 DATA     BIT       TF1
*SFR* 0000008CH   DATA     BYTE      TH0
*SFR* 0000008DH   DATA     BYTE      TH1
*SFR* 000000D6H   DATA     BYTE      TH2
*SFR* 000000D4H   DATA     BYTE      TH3
*SFR* 000000D2H   DATA     BYTE      TH4
      02000183H   XDATA    WORD      threshold
*SFR* 00000098H.1 DATA     BIT       TI
      0200023FH   XDATA    DWORD     tick
      010027EBH   CODE     ---       Timer0_Init
      01002248H   CODE     ---       Timer0_Isr
*SFR* 0000008AH   DATA     BYTE      TL0
*SFR* 0000008BH   DATA     BYTE      TL1
LX51 LINKER/LOCATER V4.66.93.0                                                        12/24/2024  17:25:26  PAGE 17


*SFR* 000000D7H   DATA     BYTE      TL2
*SFR* 000000D5H   DATA     BYTE      TL3
*SFR* 000000D3H   DATA     BYTE      TL4
*SFR* 00000089H   DATA     BYTE      TMOD
*SFR* 00000088H.4 DATA     BIT       TR0
*SFR* 00000088H.6 DATA     BIT       TR1
*SFR* 000000B0H.1 DATA     BIT       TXD
      010018D5H   CODE     ---       usb_clear_feature
      01001EECH   CODE     ---       usb_ctrl_in
      010021F9H   CODE     ---       usb_ctrl_out
      010020F1H   CODE     ---       usb_get_configuration
      0100176BH   CODE     ---       usb_get_descriptor
      01002367H   CODE     ---       usb_get_interface
      0100252AH   CODE     ---       usb_get_line_coding
      01001491H   CODE     ---       usb_get_status
      010026ABH   CODE     ---       usb_in_ep1
      010026EAH   CODE     ---       usb_in_ep2
      01001FCAH   CODE     ---       usb_init
      0100000EH   CODE     ---       usb_isr
      01002777H   CODE     ---       usb_OUT_callback
*DEL*:00000000H   CODE     ---       usb_OUT_done
      010015A8H   CODE     ---       usb_out_ep1
      01002740H   CODE     ---       usb_req_class
      01002095H   CODE     ---       usb_req_std
      01002841H   CODE     ---       usb_req_vendor
      010023A8H   CODE     ---       usb_reset
      010000C2H   CODE     ---       usb_resume
      010021A8H   CODE     ---       usb_set_address
      01001AB1H   CODE     ---       usb_set_configuration
      010027C1H   CODE     ---       usb_set_ctrl_line_state
      01000008H   CODE     ---       usb_set_descriptor
      01001A13H   CODE     ---       usb_set_feature
      01002612H   CODE     ---       usb_set_interface
      010024F7H   CODE     ---       usb_set_line_coding
      01001E74H   CODE     ---       usb_setup
      010000B2H   CODE     ---       usb_setup_in
      01002828H   CODE     ---       usb_setup_out
      0100281BH   CODE     ---       usb_setup_stall
      01002835H   CODE     ---       usb_setup_status
      020000DAH   XDATA    ---       USB_Str
      010000C9H   CODE     ---       usb_suspend
      010000C6H   CODE     ---       usb_synch_frame
      020000D7H   XDATA    WORD      usb_weight_k
*SFR* 000000FCH   DATA     BYTE      USBADR
*SFR* 000000DCH   DATA     BYTE      USBCLK
*SFR* 000000F4H   DATA     BYTE      USBCON
*SFR* 000000ECH   DATA     BYTE      USBDAT
      0200008BH   XDATA    ---       UsbFeatureBuffer
      0200000AH   XDATA    ---       UsbInBuffer
      0200004AH   XDATA    ---       UsbOutBuffer
      0200011BH   XDATA    ---       usbStr
      02000190H   XDATA    ---       USER_DEVICEDESC
      0200018DH   XDATA    ---       USER_PRODUCTDESC
      02000180H   XDATA    ---       USER_STCISPCMD
*SFR* 000000A6H   DATA     BYTE      VRTRIM
*SFR* 000000C1H   DATA     BYTE      WDT_CONTR
      02000167H   XDATA    DWORD     weigh_poll_neg_t
      0200015FH   XDATA    WORD      weight
      0200015BH   XDATA    DWORD     weight_base
      02000163H   XDATA    WORD      weight_count
      0200018BH   XDATA    WORD      Weight_difference
      02000185H   XDATA    WORD      weight_k
      02000165H   XDATA    WORD      weight_tare
      02000161H   XDATA    WORD      weight_tare_after
*SFR* 000000ABH   DATA     BYTE      WKTCH
LX51 LINKER/LOCATER V4.66.93.0                                                        12/24/2024  17:25:26  PAGE 18


*SFR* 000000AAH   DATA     BYTE      WKTCL
*SFR* 000000B0H.6 DATA     BIT       WR



SYMBOL TABLE OF MODULE:  .\Objects\多功能电子秤 (?C_STARTUP)

      VALUE       REP       CLASS    TYPE      SYMBOL NAME
      ====================================================
      ---         MODULE    ---      ---       ?C_STARTUP
      01000000H   PUBLIC    CODE     ---       ?C_STARTUP
      000000E0H   SYMBOL    DATA     ---       ACC
      000000F0H   SYMBOL    DATA     ---       B
      00000083H   SYMBOL    DATA     ---       DPH
      00000082H   SYMBOL    DATA     ---       DPL
      00000000H   SYMBOL    NUMBER   ---       IBPSTACK
      00000100H   SYMBOL    NUMBER   ---       IBPSTACKTOP
      00000080H   SYMBOL    NUMBER   ---       IDATALEN
      01001BDEH   SYMBOL    CODE     ---       IDATALOOP
      00000000H   SYMBOL    NUMBER   ---       PBPSTACK
      00000100H   SYMBOL    NUMBER   ---       PBPSTACKTOP
      00000000H   SYMBOL    NUMBER   ---       PDATALEN
      00000000H   SYMBOL    NUMBER   ---       PDATASTART
      00000000H   SYMBOL    NUMBER   ---       PPAGE
      00000000H   SYMBOL    NUMBER   ---       PPAGEENABLE
      000000A0H   SYMBOL    DATA     ---       PPAGE_SFR
      00000081H   SYMBOL    DATA     ---       SP
      01001BDBH   SYMBOL    CODE     ---       STARTUP1
      00000000H   SYMBOL    NUMBER   ---       XBPSTACK
      00000000H   SYMBOL    NUMBER   ---       XBPSTACKTOP
      00000000H   SYMBOL    NUMBER   ---       XDATALEN
      00000000H   SYMBOL    NUMBER   ---       XDATASTART
      01000000H   LINE      CODE     ---       #126
      01001BDBH   LINE      CODE     ---       #133
      01001BDDH   LINE      CODE     ---       #134
      01001BDEH   LINE      CODE     ---       #135
      01001BDFH   LINE      CODE     ---       #136
      01001BE1H   LINE      CODE     ---       #185
      01001BE4H   LINE      CODE     ---       #196

      ---         MODULE    ---      ---       MAIN
      01000003H   PUBLIC    CODE     ---       main
      000000DCH   SFRSYM    DATA     BYTE      PLLCR
      00000093H   SFRSYM    DATA     BYTE      P0M1
      00000092H   SFRSYM    DATA     BYTE      P1M0
      00000096H   SFRSYM    DATA     BYTE      P2M0
      00000091H   SFRSYM    DATA     BYTE      P1M1
      00000080H   SFRSYM    DATA     BYTE      P0
      000000B2H   SFRSYM    DATA     BYTE      P3M0
      00000095H   SFRSYM    DATA     BYTE      P2M1
      00000090H   SFRSYM    DATA     BYTE      P1
      000000B4H   SFRSYM    DATA     BYTE      P4M0
      000000B1H   SFRSYM    DATA     BYTE      P3M1
      000000A0H   SFRSYM    DATA     BYTE      P2
      000000CAH   SFRSYM    DATA     BYTE      P5M0
      000000B3H   SFRSYM    DATA     BYTE      P4M1
      000000B0H   SFRSYM    DATA     BYTE      P3
      000000ABH   SFRSYM    DATA     BYTE      WKTCH
      000000A0H.5 SFRSYM    DATA     BIT       LCD_1602_RS
      000000D0H.6 SFRSYM    DATA     BIT       AC
      000000CCH   SFRSYM    DATA     BYTE      P6M0
      000000C9H   SFRSYM    DATA     BYTE      P5M1
      000000C0H   SFRSYM    DATA     BYTE      P4
      000000B0H.4 SFRSYM    DATA     BIT       T0
      000000E2H   SFRSYM    DATA     BYTE      P7M0
LX51 LINKER/LOCATER V4.66.93.0                                                        12/24/2024  17:25:26  PAGE 19


      000000CBH   SFRSYM    DATA     BYTE      P6M1
      000000C8H   SFRSYM    DATA     BYTE      P5
      000000B0H.5 SFRSYM    DATA     BIT       T1
      000000E8H   SFRSYM    DATA     BYTE      P6
      000000E1H   SFRSYM    DATA     BYTE      P7M1
      000000A8H.7 SFRSYM    DATA     BIT       EA
      000000A0H.0 SFRSYM    DATA     BIT       LED1
      000000F8H   SFRSYM    DATA     BYTE      P7
      000000AAH   SFRSYM    DATA     BYTE      WKTCL
      000000C8H.0 SFRSYM    DATA     BIT       LED2
      000000A0H.6 SFRSYM    DATA     BIT       LCD_1602_RW
      000000CEH   SFRSYM    DATA     BYTE      SPCTL
      000000B0H.4 SFRSYM    DATA     BIT       LED3
      000000A2H   SFRSYM    DATA     BYTE      P_SW1
      000000BAH   SFRSYM    DATA     BYTE      P_SW2
      000000E5H   SFRSYM    DATA     BYTE      DPH1
      000000A8H.5 SFRSYM    DATA     BIT       EADC
      000000A8H   SFRSYM    DATA     BYTE      IE
      000000C5H   SFRSYM    DATA     BYTE      IAP_CMD
      000000E4H   SFRSYM    DATA     BYTE      DPL1
      000000BDH   SFRSYM    DATA     BYTE      ADC_RES
      000000B6H   SFRSYM    DATA     BYTE      IP2H
      000000EEH   SFRSYM    DATA     BYTE      IP3H
      000000AEH   SFRSYM    DATA     BYTE      TA
      000000B0H.7 SFRSYM    DATA     BIT       RD
      0000008FH   SFRSYM    DATA     BYTE      INTCLKO
      000000A8H.4 SFRSYM    DATA     BIT       ES
      00000090H.1 SFRSYM    DATA     BIT       ADDO
      000000B8H.5 SFRSYM    DATA     BIT       PADC
      000000B8H   SFRSYM    DATA     BYTE      IP
      000000DEH   SFRSYM    DATA     BYTE      ADCCFG
      00000098H.0 SFRSYM    DATA     BIT       RI
      000000D0H.7 SFRSYM    DATA     BIT       CY
      000000B0H.2 SFRSYM    DATA     BIT       INT0
      000000A0H.4 SFRSYM    DATA     BIT       BEEP
      000000B0H.3 SFRSYM    DATA     BIT       INT1
      00000098H.1 SFRSYM    DATA     BIT       TI
      000000C3H   SFRSYM    DATA     BYTE      IAP_ADDRH
      000000A0H.7 SFRSYM    DATA     BIT       LCD_1602_E
      000000B8H.4 SFRSYM    DATA     BIT       PS
      00000081H   SFRSYM    DATA     BYTE      SP
      000000C0H.7 SFRSYM    DATA     BIT       ADSK
      000000C4H   SFRSYM    DATA     BYTE      IAP_ADDRL
      000000D0H.2 SFRSYM    DATA     BIT       OV
      0000009EH   SFRSYM    DATA     BYTE      LIRTRIM
      000000E6H   SFRSYM    DATA     BYTE      CMPCR1
      000000E7H   SFRSYM    DATA     BYTE      CMPCR2
      000000B0H.6 SFRSYM    DATA     BIT       WR
      000000A8H.6 SFRSYM    DATA     BIT       ELVD
      00000080H.0 SFRSYM    DATA     BIT       P00
      000000BCH   SFRSYM    DATA     BYTE      ADC_CONTR
      00000099H   SFRSYM    DATA     BYTE      SBUF
      00000090H.0 SFRSYM    DATA     BIT       P10
      00000087H   SFRSYM    DATA     BYTE      PCON
      00000080H.1 SFRSYM    DATA     BIT       P01
      000000A0H.0 SFRSYM    DATA     BIT       P20
      00000090H.1 SFRSYM    DATA     BIT       P11
      00000080H.2 SFRSYM    DATA     BIT       P02
      000000F5H   SFRSYM    DATA     BYTE      IAP_TPS
      000000B0H.0 SFRSYM    DATA     BIT       P30
      000000A0H.1 SFRSYM    DATA     BIT       P21
      00000090H.2 SFRSYM    DATA     BIT       P12
      00000080H.3 SFRSYM    DATA     BIT       P03
      000000C0H.0 SFRSYM    DATA     BIT       P40
      000000B0H.1 SFRSYM    DATA     BIT       P31
LX51 LINKER/LOCATER V4.66.93.0                                                        12/24/2024  17:25:26  PAGE 20


      000000A0H.2 SFRSYM    DATA     BIT       P22
      00000098H   SFRSYM    DATA     BYTE      SCON
      00000090H.3 SFRSYM    DATA     BIT       P13
      00000080H.4 SFRSYM    DATA     BIT       P04
      000000C8H.0 SFRSYM    DATA     BIT       P50
      000000C0H.1 SFRSYM    DATA     BIT       P41
      000000B0H.2 SFRSYM    DATA     BIT       P32
      000000A0H.3 SFRSYM    DATA     BIT       P23
      00000090H.4 SFRSYM    DATA     BIT       P14
      00000089H   SFRSYM    DATA     BYTE      TMOD
      00000088H   SFRSYM    DATA     BYTE      TCON
      00000080H.5 SFRSYM    DATA     BIT       P05
      000000E8H.0 SFRSYM    DATA     BIT       P60
      000000C8H.1 SFRSYM    DATA     BIT       P51
      000000C0H.2 SFRSYM    DATA     BIT       P42
      000000B0H.3 SFRSYM    DATA     BIT       P33
      000000A0H.4 SFRSYM    DATA     BIT       P24
      00000090H.5 SFRSYM    DATA     BIT       P15
      00000080H.6 SFRSYM    DATA     BIT       P06
      000000F8H.0 SFRSYM    DATA     BIT       P70
      000000E8H.1 SFRSYM    DATA     BIT       P61
      000000C8H.2 SFRSYM    DATA     BIT       P52
      000000C0H.3 SFRSYM    DATA     BIT       P43
      000000B8H.6 SFRSYM    DATA     BIT       PLVD
      000000B0H.4 SFRSYM    DATA     BIT       P34
      000000A0H.5 SFRSYM    DATA     BIT       P25
      00000090H.6 SFRSYM    DATA     BIT       P16
      00000080H.7 SFRSYM    DATA     BIT       P07
      000000F8H.1 SFRSYM    DATA     BIT       P71
      000000E8H.2 SFRSYM    DATA     BIT       P62
      000000C8H.3 SFRSYM    DATA     BIT       P53
      000000C0H.4 SFRSYM    DATA     BIT       P44
      000000B0H.5 SFRSYM    DATA     BIT       P35
      000000A0H.6 SFRSYM    DATA     BIT       P26
      00000090H.7 SFRSYM    DATA     BIT       P17
      000000F8H.2 SFRSYM    DATA     BIT       P72
      000000E8H.3 SFRSYM    DATA     BIT       P63
      000000C8H.4 SFRSYM    DATA     BIT       P54
      000000C0H.5 SFRSYM    DATA     BIT       P45
      000000B0H.6 SFRSYM    DATA     BIT       P36
      000000A0H.7 SFRSYM    DATA     BIT       P27
      000000F8H.3 SFRSYM    DATA     BIT       P73
      000000E8H.4 SFRSYM    DATA     BIT       P64
      000000C8H.5 SFRSYM    DATA     BIT       P55
      000000C0H.6 SFRSYM    DATA     BIT       P46
      000000B0H.7 SFRSYM    DATA     BIT       P37
      000000F8H.4 SFRSYM    DATA     BIT       P74
      000000E8H.5 SFRSYM    DATA     BIT       P65
      000000C8H.6 SFRSYM    DATA     BIT       P56
      000000C0H.7 SFRSYM    DATA     BIT       P47
      000000F8H.5 SFRSYM    DATA     BIT       P75
      000000E8H.6 SFRSYM    DATA     BIT       P66
      000000C8H.7 SFRSYM    DATA     BIT       P57
      000000F8H.6 SFRSYM    DATA     BIT       P76
      000000E8H.7 SFRSYM    DATA     BIT       P67
      000000F8H.7 SFRSYM    DATA     BIT       P77
      000000A1H   SFRSYM    DATA     BYTE      BUS_SPEED
      00000088H.1 SFRSYM    DATA     BIT       IE0
      00000088H.3 SFRSYM    DATA     BIT       IE1
      000000AFH   SFRSYM    DATA     BYTE      IE2
      000000F0H   SFRSYM    DATA     BYTE      B
      0000008EH   SFRSYM    DATA     BYTE      AUXR
      000000FCH   SFRSYM    DATA     BYTE      USBADR
      000000C7H   SFRSYM    DATA     BYTE      IAP_CONTR
      000000ECH   SFRSYM    DATA     BYTE      USBDAT
LX51 LINKER/LOCATER V4.66.93.0                                                        12/24/2024  17:25:26  PAGE 21


      000000DCH   SFRSYM    DATA     BYTE      USBCLK
      000000E0H   SFRSYM    DATA     BYTE      ACC
      000000A8H.1 SFRSYM    DATA     BIT       ET0
      000000A8H.3 SFRSYM    DATA     BIT       ET1
      00000088H.5 SFRSYM    DATA     BIT       TF0
      000000FFH   SFRSYM    DATA     BYTE      RSTCFG
      000000B5H   SFRSYM    DATA     BYTE      IP2
      00000088H.7 SFRSYM    DATA     BIT       TF1
      000000F4H   SFRSYM    DATA     BYTE      USBCON
      000000DFH   SFRSYM    DATA     BYTE      IP3
      00000098H.2 SFRSYM    DATA     BIT       RB8
      0000008CH   SFRSYM    DATA     BYTE      TH0
      000000A8H.0 SFRSYM    DATA     BIT       EX0
      0000008DH   SFRSYM    DATA     BYTE      TH1
      00000088H.0 SFRSYM    DATA     BIT       IT0
      000000D6H   SFRSYM    DATA     BYTE      TH2
      000000D6H   SFRSYM    DATA     BYTE      T2H
      000000A8H.2 SFRSYM    DATA     BIT       EX1
      00000098H.3 SFRSYM    DATA     BIT       TB8
      00000088H.2 SFRSYM    DATA     BIT       IT1
      000000D4H   SFRSYM    DATA     BYTE      TH3
      000000D4H   SFRSYM    DATA     BYTE      T3H
      000000D0H.0 SFRSYM    DATA     BIT       P
      000000D2H   SFRSYM    DATA     BYTE      TH4
      000000D2H   SFRSYM    DATA     BYTE      T4H
      00000098H.7 SFRSYM    DATA     BIT       SM0
      0000008AH   SFRSYM    DATA     BYTE      TL0
      00000098H.6 SFRSYM    DATA     BIT       SM1
      0000008BH   SFRSYM    DATA     BYTE      TL1
      000000D7H   SFRSYM    DATA     BYTE      TL2
      000000D7H   SFRSYM    DATA     BYTE      T2L
      00000098H.5 SFRSYM    DATA     BIT       SM2
      000000D5H   SFRSYM    DATA     BYTE      TL3
      000000D5H   SFRSYM    DATA     BYTE      T3L
      000000D3H   SFRSYM    DATA     BYTE      TL4
      000000D3H   SFRSYM    DATA     BYTE      T4L
      000000B8H.1 SFRSYM    DATA     BIT       PT0
      000000D0H.3 SFRSYM    DATA     BIT       RS0
      000000B8H.3 SFRSYM    DATA     BIT       PT1
      000000D0H.4 SFRSYM    DATA     BIT       RS1
      000000C2H   SFRSYM    DATA     BYTE      IAP_DATA
      00000088H.4 SFRSYM    DATA     BIT       TR0
      00000088H.6 SFRSYM    DATA     BIT       TR1
      00000090H.4 SFRSYM    DATA     BIT       SDA
      000000C1H   SFRSYM    DATA     BYTE      WDT_CONTR
      000000B8H.0 SFRSYM    DATA     BIT       PX0
      000000B8H.2 SFRSYM    DATA     BIT       PX1
      0000009FH   SFRSYM    DATA     BYTE      IRTRIM
      000000B0H.6 SFRSYM    DATA     BIT       Key1
      000000C0H.6 SFRSYM    DATA     BIT       Key2
      00000083H   SFRSYM    DATA     BYTE      DPH
      000000A0H.3 SFRSYM    DATA     BIT       Key3
      000000D1H   SFRSYM    DATA     BYTE      T3T4M
      000000D1H   SFRSYM    DATA     BYTE      T4T3M
      00000090H.0 SFRSYM    DATA     BIT       Key4
      000000BEH   SFRSYM    DATA     BYTE      ADC_RESL
      00000082H   SFRSYM    DATA     BYTE      DPL
      000000CDH   SFRSYM    DATA     BYTE      SPSTAT
      000000B7H   SFRSYM    DATA     BYTE      IPH
      00000090H.5 SFRSYM    DATA     BIT       SCL
      000000EDH   SFRSYM    DATA     BYTE      MDU32CR
      0000009BH   SFRSYM    DATA     BYTE      S2BUF
      000000ADH   SFRSYM    DATA     BYTE      S3BUF
      00000098H.4 SFRSYM    DATA     BIT       REN
      00000085H   SFRSYM    DATA     BYTE      S4BUF
LX51 LINKER/LOCATER V4.66.93.0                                                        12/24/2024  17:25:26  PAGE 22


      000000A6H   SFRSYM    DATA     BYTE      VRTRIM
      0000009AH   SFRSYM    DATA     BYTE      S2CON
      000000E3H   SFRSYM    DATA     BYTE      DPS
      000000ACH   SFRSYM    DATA     BYTE      S3CON
      00000084H   SFRSYM    DATA     BYTE      S4CON
      000000EFH   SFRSYM    DATA     BYTE      AUXINTIF
      000000B9H   SFRSYM    DATA     BYTE      SADEN
      000000B0H.0 SFRSYM    DATA     BIT       RXD
      000000A9H   SFRSYM    DATA     BYTE      SADDR
      000000B0H.1 SFRSYM    DATA     BIT       TXD
      000000DDH   SFRSYM    DATA     BYTE      MDU32SR
      000000C6H   SFRSYM    DATA     BYTE      IAP_TRIG
      000000D0H.5 SFRSYM    DATA     BIT       F0
      0000009DH   SFRSYM    DATA     BYTE      IRCBAND
      000000D0H.1 SFRSYM    DATA     BIT       F1
      000000D0H   SFRSYM    DATA     BYTE      PSW
      000000CFH   SFRSYM    DATA     BYTE      SPDAT
      00000094H   SFRSYM    DATA     BYTE      P0M0
      00000023H.2 SYMBOL    BIT      BIT       busy

      01000003H   BLOCK     CODE     ---       LVL=0
      01000003H   LINE      CODE     ---       #3
      01000003H   LINE      CODE     ---       #4
      01000003H   LINE      CODE     ---       #5
      01000006H   LINE      CODE     ---       #7
      01000006H   LINE      CODE     ---       #8
      01000006H   LINE      CODE     ---       #9
      ---         BLOCKEND  ---      ---       LVL=0

      ---         MODULE    ---      ---       APP_MAIN
      02000193H   PUBLIC    XDATA    WORD      Item_Count
      02000190H   PUBLIC    XDATA    ---       USER_DEVICEDESC
      0200018DH   PUBLIC    XDATA    ---       USER_PRODUCTDESC
      00000022H.6 PUBLIC    BIT      BIT       Key4_event
      00000022H.5 PUBLIC    BIT      BIT       Key3_event
      00000022H.4 PUBLIC    BIT      BIT       Key2_event
      00000022H.3 PUBLIC    BIT      BIT       Key1_event
      0200018BH   PUBLIC    XDATA    WORD      Weight_difference
      02000187H   PUBLIC    XDATA    DWORD     beep_net_time
      02000185H   PUBLIC    XDATA    WORD      weight_k
      02000183H   PUBLIC    XDATA    WORD      threshold
      02000180H   PUBLIC    XDATA    ---       USER_STCISPCMD
      0200017EH   PUBLIC    XDATA    WORD      poll_beep_time
      0200016FH   PUBLIC    XDATA    ---       LCDstr
      0200016BH   PUBLIC    XDATA    DWORD     poll_neg_t
      02000167H   PUBLIC    XDATA    DWORD     weigh_poll_neg_t
      02000165H   PUBLIC    XDATA    WORD      weight_tare
      02000163H   PUBLIC    XDATA    WORD      weight_count
      02000161H   PUBLIC    XDATA    WORD      weight_tare_after
      0200015FH   PUBLIC    XDATA    WORD      weight
      0200015BH   PUBLIC    XDATA    DWORD     weight_base
      0200011BH   PUBLIC    XDATA    ---       usbStr
      0200011AH   PUBLIC    XDATA    BYTE      Key4_cnt
      020000DAH   PUBLIC    XDATA    ---       USB_Str
      020000D9H   PUBLIC    XDATA    BYTE      Key3_cnt
      020000D7H   PUBLIC    XDATA    WORD      usb_weight_k
      020000D6H   PUBLIC    XDATA    BYTE      Key2_cnt
      020000D5H   PUBLIC    XDATA    BYTE      Key1_cnt
      020000D3H   PUBLIC    XDATA    INT       Page
      01002790H   PUBLIC    CODE     ---       I2C_Isr
      01002777H   PUBLIC    CODE     ---       usb_OUT_callback
      01001329H   PUBLIC    CODE     ---       app_main
      02000202H   PUBLIC    XDATA    BYTE      ?_usb_set_weight_K?BYTE
      0100169CH   PUBLIC    CODE     ---       _usb_set_weight_K
      0100258CH   PUBLIC    CODE     ---       Page_Switching
LX51 LINKER/LOCATER V4.66.93.0                                                        12/24/2024  17:25:26  PAGE 23


      01001F5FH   PUBLIC    CODE     ---       _Weight_threshold
      01000FE6H   PUBLIC    CODE     ---       Overweight_alarm
      01000DBDH   PUBLIC    CODE     ---       LCD_Display_Count
      0100214DH   PUBLIC    CODE     ---       Count_weight
      010022DDH   PUBLIC    CODE     ---       tare_weight
      010011B9H   PUBLIC    CODE     ---       LCD_Display_Weight
      01001DF9H   PUBLIC    CODE     ---       Display_PersonInfo
      01002689H   PUBLIC    CODE     ---       IO_Init
      000000DCH   SFRSYM    DATA     BYTE      PLLCR
      00000093H   SFRSYM    DATA     BYTE      P0M1
      00000092H   SFRSYM    DATA     BYTE      P1M0
      00000096H   SFRSYM    DATA     BYTE      P2M0
      00000091H   SFRSYM    DATA     BYTE      P1M1
      00000080H   SFRSYM    DATA     BYTE      P0
      000000B2H   SFRSYM    DATA     BYTE      P3M0
      00000095H   SFRSYM    DATA     BYTE      P2M1
      00000090H   SFRSYM    DATA     BYTE      P1
      000000B4H   SFRSYM    DATA     BYTE      P4M0
      000000B1H   SFRSYM    DATA     BYTE      P3M1
      000000A0H   SFRSYM    DATA     BYTE      P2
      000000CAH   SFRSYM    DATA     BYTE      P5M0
      000000B3H   SFRSYM    DATA     BYTE      P4M1
      000000B0H   SFRSYM    DATA     BYTE      P3
      000000ABH   SFRSYM    DATA     BYTE      WKTCH
      000000A0H.5 SFRSYM    DATA     BIT       LCD_1602_RS
      000000D0H.6 SFRSYM    DATA     BIT       AC
      000000CCH   SFRSYM    DATA     BYTE      P6M0
      000000C9H   SFRSYM    DATA     BYTE      P5M1
      000000C0H   SFRSYM    DATA     BYTE      P4
      000000B0H.4 SFRSYM    DATA     BIT       T0
      000000E2H   SFRSYM    DATA     BYTE      P7M0
      000000CBH   SFRSYM    DATA     BYTE      P6M1
      000000C8H   SFRSYM    DATA     BYTE      P5
      000000B0H.5 SFRSYM    DATA     BIT       T1
      000000E8H   SFRSYM    DATA     BYTE      P6
      000000E1H   SFRSYM    DATA     BYTE      P7M1
      000000A8H.7 SFRSYM    DATA     BIT       EA
      000000A0H.0 SFRSYM    DATA     BIT       LED1
      000000F8H   SFRSYM    DATA     BYTE      P7
      000000AAH   SFRSYM    DATA     BYTE      WKTCL
      000000C8H.0 SFRSYM    DATA     BIT       LED2
      000000A0H.6 SFRSYM    DATA     BIT       LCD_1602_RW
      000000CEH   SFRSYM    DATA     BYTE      SPCTL
      000000B0H.4 SFRSYM    DATA     BIT       LED3
      000000A2H   SFRSYM    DATA     BYTE      P_SW1
      000000BAH   SFRSYM    DATA     BYTE      P_SW2
      000000E5H   SFRSYM    DATA     BYTE      DPH1
      000000A8H.5 SFRSYM    DATA     BIT       EADC
      000000A8H   SFRSYM    DATA     BYTE      IE
      000000C5H   SFRSYM    DATA     BYTE      IAP_CMD
      000000E4H   SFRSYM    DATA     BYTE      DPL1
      000000BDH   SFRSYM    DATA     BYTE      ADC_RES
      000000B6H   SFRSYM    DATA     BYTE      IP2H
      000000EEH   SFRSYM    DATA     BYTE      IP3H
      000000AEH   SFRSYM    DATA     BYTE      TA
      000000B0H.7 SFRSYM    DATA     BIT       RD
      0000008FH   SFRSYM    DATA     BYTE      INTCLKO
      000000A8H.4 SFRSYM    DATA     BIT       ES
      00000090H.1 SFRSYM    DATA     BIT       ADDO
      000000B8H.5 SFRSYM    DATA     BIT       PADC
      000000B8H   SFRSYM    DATA     BYTE      IP
      000000DEH   SFRSYM    DATA     BYTE      ADCCFG
      00000098H.0 SFRSYM    DATA     BIT       RI
      000000D0H.7 SFRSYM    DATA     BIT       CY
      000000B0H.2 SFRSYM    DATA     BIT       INT0
LX51 LINKER/LOCATER V4.66.93.0                                                        12/24/2024  17:25:26  PAGE 24


      000000A0H.4 SFRSYM    DATA     BIT       BEEP
      000000B0H.3 SFRSYM    DATA     BIT       INT1
      00000098H.1 SFRSYM    DATA     BIT       TI
      000000C3H   SFRSYM    DATA     BYTE      IAP_ADDRH
      000000A0H.7 SFRSYM    DATA     BIT       LCD_1602_E
      000000B8H.4 SFRSYM    DATA     BIT       PS
      00000081H   SFRSYM    DATA     BYTE      SP
      000000C0H.7 SFRSYM    DATA     BIT       ADSK
      000000C4H   SFRSYM    DATA     BYTE      IAP_ADDRL
      000000D0H.2 SFRSYM    DATA     BIT       OV
      0000009EH   SFRSYM    DATA     BYTE      LIRTRIM
      000000E6H   SFRSYM    DATA     BYTE      CMPCR1
      000000E7H   SFRSYM    DATA     BYTE      CMPCR2
      000000B0H.6 SFRSYM    DATA     BIT       WR
      000000A8H.6 SFRSYM    DATA     BIT       ELVD
      00000080H.0 SFRSYM    DATA     BIT       P00
      000000BCH   SFRSYM    DATA     BYTE      ADC_CONTR
      00000099H   SFRSYM    DATA     BYTE      SBUF
      00000090H.0 SFRSYM    DATA     BIT       P10
      00000087H   SFRSYM    DATA     BYTE      PCON
      00000080H.1 SFRSYM    DATA     BIT       P01
      000000A0H.0 SFRSYM    DATA     BIT       P20
      00000090H.1 SFRSYM    DATA     BIT       P11
      00000080H.2 SFRSYM    DATA     BIT       P02
      000000F5H   SFRSYM    DATA     BYTE      IAP_TPS
      000000B0H.0 SFRSYM    DATA     BIT       P30
      000000A0H.1 SFRSYM    DATA     BIT       P21
      00000090H.2 SFRSYM    DATA     BIT       P12
      00000080H.3 SFRSYM    DATA     BIT       P03
      000000C0H.0 SFRSYM    DATA     BIT       P40
      000000B0H.1 SFRSYM    DATA     BIT       P31
      000000A0H.2 SFRSYM    DATA     BIT       P22
      00000098H   SFRSYM    DATA     BYTE      SCON
      00000090H.3 SFRSYM    DATA     BIT       P13
      00000080H.4 SFRSYM    DATA     BIT       P04
      000000C8H.0 SFRSYM    DATA     BIT       P50
      000000C0H.1 SFRSYM    DATA     BIT       P41
      000000B0H.2 SFRSYM    DATA     BIT       P32
      000000A0H.3 SFRSYM    DATA     BIT       P23
      00000090H.4 SFRSYM    DATA     BIT       P14
      00000089H   SFRSYM    DATA     BYTE      TMOD
      00000088H   SFRSYM    DATA     BYTE      TCON
      00000080H.5 SFRSYM    DATA     BIT       P05
      000000E8H.0 SFRSYM    DATA     BIT       P60
      000000C8H.1 SFRSYM    DATA     BIT       P51
      000000C0H.2 SFRSYM    DATA     BIT       P42
      000000B0H.3 SFRSYM    DATA     BIT       P33
      000000A0H.4 SFRSYM    DATA     BIT       P24
      00000090H.5 SFRSYM    DATA     BIT       P15
      00000080H.6 SFRSYM    DATA     BIT       P06
      000000F8H.0 SFRSYM    DATA     BIT       P70
      000000E8H.1 SFRSYM    DATA     BIT       P61
      000000C8H.2 SFRSYM    DATA     BIT       P52
      000000C0H.3 SFRSYM    DATA     BIT       P43
      000000B8H.6 SFRSYM    DATA     BIT       PLVD
      000000B0H.4 SFRSYM    DATA     BIT       P34
      000000A0H.5 SFRSYM    DATA     BIT       P25
      00000090H.6 SFRSYM    DATA     BIT       P16
      00000080H.7 SFRSYM    DATA     BIT       P07
      000000F8H.1 SFRSYM    DATA     BIT       P71
      000000E8H.2 SFRSYM    DATA     BIT       P62
      000000C8H.3 SFRSYM    DATA     BIT       P53
      000000C0H.4 SFRSYM    DATA     BIT       P44
      000000B0H.5 SFRSYM    DATA     BIT       P35
      000000A0H.6 SFRSYM    DATA     BIT       P26
LX51 LINKER/LOCATER V4.66.93.0                                                        12/24/2024  17:25:26  PAGE 25


      00000090H.7 SFRSYM    DATA     BIT       P17
      000000F8H.2 SFRSYM    DATA     BIT       P72
      000000E8H.3 SFRSYM    DATA     BIT       P63
      000000C8H.4 SFRSYM    DATA     BIT       P54
      000000C0H.5 SFRSYM    DATA     BIT       P45
      000000B0H.6 SFRSYM    DATA     BIT       P36
      000000A0H.7 SFRSYM    DATA     BIT       P27
      000000F8H.3 SFRSYM    DATA     BIT       P73
      000000E8H.4 SFRSYM    DATA     BIT       P64
      000000C8H.5 SFRSYM    DATA     BIT       P55
      000000C0H.6 SFRSYM    DATA     BIT       P46
      000000B0H.7 SFRSYM    DATA     BIT       P37
      000000F8H.4 SFRSYM    DATA     BIT       P74
      000000E8H.5 SFRSYM    DATA     BIT       P65
      000000C8H.6 SFRSYM    DATA     BIT       P56
      000000C0H.7 SFRSYM    DATA     BIT       P47
      000000F8H.5 SFRSYM    DATA     BIT       P75
      000000E8H.6 SFRSYM    DATA     BIT       P66
      000000C8H.7 SFRSYM    DATA     BIT       P57
      000000F8H.6 SFRSYM    DATA     BIT       P76
      000000E8H.7 SFRSYM    DATA     BIT       P67
      000000F8H.7 SFRSYM    DATA     BIT       P77
      000000A1H   SFRSYM    DATA     BYTE      BUS_SPEED
      00000088H.1 SFRSYM    DATA     BIT       IE0
      00000088H.3 SFRSYM    DATA     BIT       IE1
      000000AFH   SFRSYM    DATA     BYTE      IE2
      000000F0H   SFRSYM    DATA     BYTE      B
      0000008EH   SFRSYM    DATA     BYTE      AUXR
      000000FCH   SFRSYM    DATA     BYTE      USBADR
      000000C7H   SFRSYM    DATA     BYTE      IAP_CONTR
      000000ECH   SFRSYM    DATA     BYTE      USBDAT
      000000DCH   SFRSYM    DATA     BYTE      USBCLK
      000000E0H   SFRSYM    DATA     BYTE      ACC
      000000A8H.1 SFRSYM    DATA     BIT       ET0
      000000A8H.3 SFRSYM    DATA     BIT       ET1
      00000088H.5 SFRSYM    DATA     BIT       TF0
      000000FFH   SFRSYM    DATA     BYTE      RSTCFG
      000000B5H   SFRSYM    DATA     BYTE      IP2
      00000088H.7 SFRSYM    DATA     BIT       TF1
      000000F4H   SFRSYM    DATA     BYTE      USBCON
      000000DFH   SFRSYM    DATA     BYTE      IP3
      00000098H.2 SFRSYM    DATA     BIT       RB8
      0000008CH   SFRSYM    DATA     BYTE      TH0
      000000A8H.0 SFRSYM    DATA     BIT       EX0
      0000008DH   SFRSYM    DATA     BYTE      TH1
      00000088H.0 SFRSYM    DATA     BIT       IT0
      000000D6H   SFRSYM    DATA     BYTE      TH2
      000000D6H   SFRSYM    DATA     BYTE      T2H
      000000A8H.2 SFRSYM    DATA     BIT       EX1
      00000098H.3 SFRSYM    DATA     BIT       TB8
      00000088H.2 SFRSYM    DATA     BIT       IT1
      000000D4H   SFRSYM    DATA     BYTE      TH3
      000000D4H   SFRSYM    DATA     BYTE      T3H
      000000D0H.0 SFRSYM    DATA     BIT       P
      000000D2H   SFRSYM    DATA     BYTE      TH4
      000000D2H   SFRSYM    DATA     BYTE      T4H
      00000098H.7 SFRSYM    DATA     BIT       SM0
      0000008AH   SFRSYM    DATA     BYTE      TL0
      00000098H.6 SFRSYM    DATA     BIT       SM1
      0000008BH   SFRSYM    DATA     BYTE      TL1
      000000D7H   SFRSYM    DATA     BYTE      TL2
      000000D7H   SFRSYM    DATA     BYTE      T2L
      00000098H.5 SFRSYM    DATA     BIT       SM2
      000000D5H   SFRSYM    DATA     BYTE      TL3
      000000D5H   SFRSYM    DATA     BYTE      T3L
LX51 LINKER/LOCATER V4.66.93.0                                                        12/24/2024  17:25:26  PAGE 26


      000000D3H   SFRSYM    DATA     BYTE      TL4
      000000D3H   SFRSYM    DATA     BYTE      T4L
      000000B8H.1 SFRSYM    DATA     BIT       PT0
      000000D0H.3 SFRSYM    DATA     BIT       RS0
      000000B8H.3 SFRSYM    DATA     BIT       PT1
      000000D0H.4 SFRSYM    DATA     BIT       RS1
      000000C2H   SFRSYM    DATA     BYTE      IAP_DATA
      00000088H.4 SFRSYM    DATA     BIT       TR0
      00000088H.6 SFRSYM    DATA     BIT       TR1
      00000090H.4 SFRSYM    DATA     BIT       SDA
      000000C1H   SFRSYM    DATA     BYTE      WDT_CONTR
      000000B8H.0 SFRSYM    DATA     BIT       PX0
      000000B8H.2 SFRSYM    DATA     BIT       PX1
      0000009FH   SFRSYM    DATA     BYTE      IRTRIM
      000000B0H.6 SFRSYM    DATA     BIT       Key1
      000000C0H.6 SFRSYM    DATA     BIT       Key2
      00000083H   SFRSYM    DATA     BYTE      DPH
      000000A0H.3 SFRSYM    DATA     BIT       Key3
      000000D1H   SFRSYM    DATA     BYTE      T3T4M
      000000D1H   SFRSYM    DATA     BYTE      T4T3M
      00000090H.0 SFRSYM    DATA     BIT       Key4
      000000BEH   SFRSYM    DATA     BYTE      ADC_RESL
      00000082H   SFRSYM    DATA     BYTE      DPL
      000000CDH   SFRSYM    DATA     BYTE      SPSTAT
      000000B7H   SFRSYM    DATA     BYTE      IPH
      00000090H.5 SFRSYM    DATA     BIT       SCL
      000000EDH   SFRSYM    DATA     BYTE      MDU32CR
      0000009BH   SFRSYM    DATA     BYTE      S2BUF
      000000ADH   SFRSYM    DATA     BYTE      S3BUF
      00000098H.4 SFRSYM    DATA     BIT       REN
      00000085H   SFRSYM    DATA     BYTE      S4BUF
      000000A6H   SFRSYM    DATA     BYTE      VRTRIM
      0000009AH   SFRSYM    DATA     BYTE      S2CON
      000000E3H   SFRSYM    DATA     BYTE      DPS
      000000ACH   SFRSYM    DATA     BYTE      S3CON
      00000084H   SFRSYM    DATA     BYTE      S4CON
      000000EFH   SFRSYM    DATA     BYTE      AUXINTIF
      000000B9H   SFRSYM    DATA     BYTE      SADEN
      000000B0H.0 SFRSYM    DATA     BIT       RXD
      000000A9H   SFRSYM    DATA     BYTE      SADDR
      000000B0H.1 SFRSYM    DATA     BIT       TXD
      000000DDH   SFRSYM    DATA     BYTE      MDU32SR
      000000C6H   SFRSYM    DATA     BYTE      IAP_TRIG
      000000D0H.5 SFRSYM    DATA     BIT       F0
      0000009DH   SFRSYM    DATA     BYTE      IRCBAND
      000000D0H.1 SFRSYM    DATA     BIT       F1
      000000D0H   SFRSYM    DATA     BYTE      PSW
      000000CFH   SFRSYM    DATA     BYTE      SPDAT
      00000094H   SFRSYM    DATA     BYTE      P0M0
      00000022H.2 SYMBOL    BIT      BIT       busy

      01002689H   BLOCK     CODE     ---       LVL=0
      01002689H   LINE      CODE     ---       #43
      01002689H   LINE      CODE     ---       #44
      01002689H   LINE      CODE     ---       #45
      0100268CH   LINE      CODE     ---       #46
      0100268EH   LINE      CODE     ---       #47
      01002690H   LINE      CODE     ---       #48
      01002692H   LINE      CODE     ---       #49
      01002694H   LINE      CODE     ---       #50
      01002696H   LINE      CODE     ---       #51
      01002698H   LINE      CODE     ---       #52
      0100269AH   LINE      CODE     ---       #53
      0100269CH   LINE      CODE     ---       #54
      0100269EH   LINE      CODE     ---       #55
LX51 LINKER/LOCATER V4.66.93.0                                                        12/24/2024  17:25:26  PAGE 27


      010026A0H   LINE      CODE     ---       #56
      010026A2H   LINE      CODE     ---       #57
      010026A4H   LINE      CODE     ---       #58
      010026A6H   LINE      CODE     ---       #59
      010026A8H   LINE      CODE     ---       #60
      010026AAH   LINE      CODE     ---       #61
      ---         BLOCKEND  ---      ---       LVL=0

      01001DF9H   BLOCK     CODE     ---       LVL=0
      01001DF9H   LINE      CODE     ---       #72
      01001DF9H   LINE      CODE     ---       #73
      01001DF9H   LINE      CODE     ---       #74
      01001E1CH   LINE      CODE     ---       #75
      01001E2DH   LINE      CODE     ---       #76
      01001E34H   LINE      CODE     ---       #77
      01001E57H   LINE      CODE     ---       #78
      01001E68H   LINE      CODE     ---       #79
      01001E6FH   LINE      CODE     ---       #80
      ---         BLOCKEND  ---      ---       LVL=0

      010011B9H   BLOCK     CODE     ---       LVL=0
      010011B9H   LINE      CODE     ---       #91
      010011B9H   LINE      CODE     ---       #92
      010011B9H   LINE      CODE     ---       #94
      010011CAH   LINE      CODE     ---       #95
      010011DBH   LINE      CODE     ---       #96
      010011ECH   LINE      CODE     ---       #97
      010011FDH   LINE      CODE     ---       #99
      01001223H   LINE      CODE     ---       #100
      01001234H   LINE      CODE     ---       #101
      0100125FH   LINE      CODE     ---       #102
      0100125FH   LINE      CODE     ---       #103
      01001293H   LINE      CODE     ---       #104
      010012B0H   LINE      CODE     ---       #105
      010012C8H   LINE      CODE     ---       #106
      010012D1H   LINE      CODE     ---       #107
      010012D1H   LINE      CODE     ---       #109
      010012F7H   LINE      CODE     ---       #110
      01001308H   LINE      CODE     ---       #111
      01001317H   LINE      CODE     ---       #112
      01001317H   LINE      CODE     ---       #113
      01001328H   LINE      CODE     ---       #114
      01001328H   LINE      CODE     ---       #115
      ---         BLOCKEND  ---      ---       LVL=0

      010022DDH   BLOCK     CODE     ---       LVL=0
      010022DDH   LINE      CODE     ---       #121
      010022DDH   LINE      CODE     ---       #122
      010022DDH   LINE      CODE     ---       #124
      010022ECH   LINE      CODE     ---       #125
      010022ECH   LINE      CODE     ---       #126
      01002313H   LINE      CODE     ---       #127
      01002324H   LINE      CODE     ---       #128
      01002324H   LINE      CODE     ---       #129
      ---         BLOCKEND  ---      ---       LVL=0

      0100214DH   BLOCK     CODE     ---       LVL=0
      0100214DH   LINE      CODE     ---       #136
      0100214DH   LINE      CODE     ---       #137
      0100214DH   LINE      CODE     ---       #138
      01002175H   LINE      CODE     ---       #139
      01002175H   LINE      CODE     ---       #140
      0100217FH   LINE      CODE     ---       #141
      01002180H   LINE      CODE     ---       #143
      01002180H   LINE      CODE     ---       #144
LX51 LINKER/LOCATER V4.66.93.0                                                        12/24/2024  17:25:26  PAGE 28


      010021A7H   LINE      CODE     ---       #145
      010021A7H   LINE      CODE     ---       #146
      ---         BLOCKEND  ---      ---       LVL=0

      01000DBDH   BLOCK     CODE     ---       LVL=0
      01000DBDH   LINE      CODE     ---       #158
      01000DBDH   LINE      CODE     ---       #159
      01000DBDH   LINE      CODE     ---       #161
      01000DCEH   LINE      CODE     ---       #162
      01000DDFH   LINE      CODE     ---       #163
      01000DF0H   LINE      CODE     ---       #164
      01000E01H   LINE      CODE     ---       #165
      01000E12H   LINE      CODE     ---       #167
      01000E3DH   LINE      CODE     ---       #168
      01000E3DH   LINE      CODE     ---       #169
      01000E64H   LINE      CODE     ---       #170
      01000E7CH   LINE      CODE     ---       #171
      01000E94H   LINE      CODE     ---       #172
      01000EACH   LINE      CODE     ---       #173
      01000EB5H   LINE      CODE     ---       #174
      01000EB5H   LINE      CODE     ---       #175
      01000EDBH   LINE      CODE     ---       #176
      01000EECH   LINE      CODE     ---       #177
      01000EFBH   LINE      CODE     ---       #178
      01000EFBH   LINE      CODE     ---       #179
      01000F0CH   LINE      CODE     ---       #180
      01000F0CH   LINE      CODE     ---       #182
      01000F16H   LINE      CODE     ---       #183
      01000F16H   LINE      CODE     ---       #184
      01000F25H   LINE      CODE     ---       #185
      01000F2CH   LINE      CODE     ---       #186
      01000F2EH   LINE      CODE     ---       #188
      01000F2EH   LINE      CODE     ---       #189
      01000F49H   LINE      CODE     ---       #190
      01000F49H   LINE      CODE     ---       #191
      01000F6FH   LINE      CODE     ---       #192
      01000F80H   LINE      CODE     ---       #194
      01000F8FH   LINE      CODE     ---       #195
      01000F8FH   LINE      CODE     ---       #196
      01000F95H   LINE      CODE     ---       #197
      01000F95H   LINE      CODE     ---       #198
      01000FBBH   LINE      CODE     ---       #199
      01000FCCH   LINE      CODE     ---       #200
      01000FD6H   LINE      CODE     ---       #201
      01000FD6H   LINE      CODE     ---       #202
      01000FE5H   LINE      CODE     ---       #203
      01000FE5H   LINE      CODE     ---       #204
      ---         BLOCKEND  ---      ---       LVL=0

      01000FE6H   BLOCK     CODE     ---       LVL=0
      01000FE6H   LINE      CODE     ---       #211
      01000FE6H   LINE      CODE     ---       #212
      01000FE6H   LINE      CODE     ---       #213
      01000FF7H   LINE      CODE     ---       #214
      0100101EH   LINE      CODE     ---       #215
      0100103BH   LINE      CODE     ---       #216
      0100104CH   LINE      CODE     ---       #217
      0100105DH   LINE      CODE     ---       #218
      0100106EH   LINE      CODE     ---       #219
      01001094H   LINE      CODE     ---       #220
      010010A5H   LINE      CODE     ---       #221
      010010B6H   LINE      CODE     ---       #222
      010010D5H   LINE      CODE     ---       #223
      010010D9H   LINE      CODE     ---       #224
      010010D9H   LINE      CODE     ---       #225
LX51 LINKER/LOCATER V4.66.93.0                                                        12/24/2024  17:25:26  PAGE 29


      010010DFH   LINE      CODE     ---       #226
      010010DFH   LINE      CODE     ---       #228
      010010FFH   LINE      CODE     ---       #229
      010010FFH   LINE      CODE     ---       #230
      01001175H   LINE      CODE     ---       #231
      01001175H   LINE      CODE     ---       #232
      01001177H   LINE      CODE     ---       #233
      01001179H   LINE      CODE     ---       #234
      0100117BH   LINE      CODE     ---       #235
      01001193H   LINE      CODE     ---       #236
      010011ABH   LINE      CODE     ---       #237
      010011B4H   LINE      CODE     ---       #238
      010011B4H   LINE      CODE     ---       #239
      010011B4H   LINE      CODE     ---       #241
      010011B4H   LINE      CODE     ---       #242
      010011B6H   LINE      CODE     ---       #243
      010011B8H   LINE      CODE     ---       #244
      010011B8H   LINE      CODE     ---       #245
      ---         BLOCKEND  ---      ---       LVL=0

      01001F5FH   BLOCK     CODE     ---       LVL=0
      00000006H   SYMBOL    DATA     WORD      k
      01001F5FH   LINE      CODE     ---       #252
      01001F5FH   LINE      CODE     ---       #253
      01001F5FH   LINE      CODE     ---       #255
      01001F65H   LINE      CODE     ---       #256
      01001F65H   LINE      CODE     ---       #257
      01001F73H   LINE      CODE     ---       #258
      01001F74H   LINE      CODE     ---       #259
      01001F89H   LINE      CODE     ---       #260
      01001F89H   LINE      CODE     ---       #261
      01001F95H   LINE      CODE     ---       #262
      01001F96H   LINE      CODE     ---       #263
      01001F9CH   LINE      CODE     ---       #264
      01001F9CH   LINE      CODE     ---       #266
      01001F9CH   LINE      CODE     ---       #267
      01001FA2H   LINE      CODE     ---       #268
      01001FA2H   LINE      CODE     ---       #269
      01001FC9H   LINE      CODE     ---       #270
      01001FC9H   LINE      CODE     ---       #271
      ---         BLOCKEND  ---      ---       LVL=0

      0100258CH   BLOCK     CODE     ---       LVL=0
      0100258CH   LINE      CODE     ---       #278
      0100258CH   LINE      CODE     ---       #279
      0100258CH   LINE      CODE     ---       #280
      0100258EH   LINE      CODE     ---       #281
      01002590H   LINE      CODE     ---       #282
      01002595H   LINE      CODE     ---       #283
      010025A3H   LINE      CODE     ---       #284
      010025B4H   LINE      CODE     ---       #285
      010025B4H   LINE      CODE     ---       #286
      010025B9H   LINE      CODE     ---       #287
      010025B9H   LINE      CODE     ---       #288
      ---         BLOCKEND  ---      ---       LVL=0

      0100169CH   BLOCK     CODE     ---       LVL=0
      02000202H   SYMBOL    XDATA    ---       UsbOut
      02000205H   SYMBOL    XDATA    ---       size_t
      010016A7H   BLOCK     CODE     NEAR LAB  LVL=1
      00000006H   SYMBOL    DATA     WORD      i
      ---         BLOCKEND  ---      ---       LVL=1
      0100169CH   LINE      CODE     ---       #290
      010016A7H   LINE      CODE     ---       #291
      010016A7H   LINE      CODE     ---       #293
LX51 LINKER/LOCATER V4.66.93.0                                                        12/24/2024  17:25:26  PAGE 30


      010016C1H   LINE      CODE     ---       #294
      010016C1H   LINE      CODE     ---       #295
      010016E0H   LINE      CODE     ---       #296
      010016E7H   LINE      CODE     ---       #297
      010016EFH   LINE      CODE     ---       #298
      010016EFH   LINE      CODE     ---       #299
      01001731H   LINE      CODE     ---       #300
      01001731H   LINE      CODE     ---       #301
      01001741H   LINE      CODE     ---       #302
      0100175EH   LINE      CODE     ---       #303
      ---         BLOCKEND  ---      ---       LVL=0

      01001329H   BLOCK     CODE     ---       LVL=0
      01001329H   BLOCK     CODE     NEAR LAB  LVL=1
      02000195H   SYMBOL    XDATA    INT       chishu
      ---         BLOCKEND  ---      ---       LVL=1
      01001329H   LINE      CODE     ---       #306
      01001329H   LINE      CODE     ---       #307
      01001329H   LINE      CODE     ---       #308
      01001330H   LINE      CODE     ---       #311
      01001333H   LINE      CODE     ---       #312
      01001336H   LINE      CODE     ---       #313
      01001339H   LINE      CODE     ---       #314
      0100133CH   LINE      CODE     ---       #315
      0100133EH   LINE      CODE     ---       #317
      01001357H   LINE      CODE     ---       #318
      01001357H   LINE      CODE     ---       #319
      0100135EH   LINE      CODE     ---       #320
      01001360H   LINE      CODE     ---       #321
      01001363H   LINE      CODE     ---       #322
      01001366H   LINE      CODE     ---       #323
      01001369H   LINE      CODE     ---       #324
      01001372H   LINE      CODE     ---       #326
      01001372H   LINE      CODE     ---       #327
      01001372H   LINE      CODE     ---       #329
      01001384H   LINE      CODE     ---       #330
      01001396H   LINE      CODE     ---       #331
      010013A8H   LINE      CODE     ---       #332
      010013BAH   LINE      CODE     ---       #333
      010013BDH   LINE      CODE     ---       #334
      010013BDH   LINE      CODE     ---       #335
      010013BDH   LINE      CODE     ---       #336
      010013BDH   LINE      CODE     ---       #338
      010013BDH   LINE      CODE     ---       #339
      010013C9H   LINE      CODE     ---       #340
      010013C9H   LINE      CODE     ---       #341
      010013CCH   LINE      CODE     ---       #342
      010013CCH   LINE      CODE     ---       #343
      010013CCH   LINE      CODE     ---       #344
      010013CCH   LINE      CODE     ---       #345
      010013CCH   LINE      CODE     ---       #346
      010013CCH   LINE      CODE     ---       #347
      010013CCH   LINE      CODE     ---       #348
      010013CCH   LINE      CODE     ---       #349
      010013CCH   LINE      CODE     ---       #350
      010013CCH   LINE      CODE     ---       #352
      010013CCH   LINE      CODE     ---       #353
      010013CCH   LINE      CODE     ---       #354
      010013CCH   LINE      CODE     ---       #356
      010013CCH   LINE      CODE     ---       #357
      010013CCH   LINE      CODE     ---       #358
      010013CCH   LINE      CODE     ---       #359
      010013CCH   LINE      CODE     ---       #360
      010013CCH   LINE      CODE     ---       #361
      010013CFH   LINE      CODE     ---       #362
LX51 LINKER/LOCATER V4.66.93.0                                                        12/24/2024  17:25:26  PAGE 31


      010013CFH   LINE      CODE     ---       #364
      010013DBH   LINE      CODE     ---       #365
      010013DBH   LINE      CODE     ---       #366
      010013DEH   LINE      CODE     ---       #367
      010013DEH   LINE      CODE     ---       #368
      010013DEH   LINE      CODE     ---       #369
      010013DEH   LINE      CODE     ---       #371
      010013DEH   LINE      CODE     ---       #372
      010013EAH   LINE      CODE     ---       #373
      010013EAH   LINE      CODE     ---       #374
      010013F0H   LINE      CODE     ---       #375
      010013F0H   LINE      CODE     ---       #376
      010013F0H   LINE      CODE     ---       #377
      010013F3H   LINE      CODE     ---       #378
      010013F3H   LINE      CODE     ---       #380
      010013F6H   LINE      CODE     ---       #381
      010013F6H   LINE      CODE     ---       #383
      01001410H   LINE      CODE     ---       #384
      01001410H   LINE      CODE     ---       #387
      01001427H   LINE      CODE     ---       #388
      01001427H   LINE      CODE     ---       #389
      01001427H   LINE      CODE     ---       #391
      0100142AH   LINE      CODE     ---       #393
      0100142CH   LINE      CODE     ---       #394
      0100142CH   LINE      CODE     ---       #395
      0100142FH   LINE      CODE     ---       #396
      01001431H   LINE      CODE     ---       #397
      01001431H   LINE      CODE     ---       #398
      01001443H   LINE      CODE     ---       #399
      01001443H   LINE      CODE     ---       #400
      01001449H   LINE      CODE     ---       #401
      01001449H   LINE      CODE     ---       #402
      0100145BH   LINE      CODE     ---       #403
      0100145BH   LINE      CODE     ---       #404
      01001461H   LINE      CODE     ---       #405
      01001461H   LINE      CODE     ---       #406
      01001473H   LINE      CODE     ---       #407
      01001473H   LINE      CODE     ---       #408
      01001479H   LINE      CODE     ---       #409
      01001479H   LINE      CODE     ---       #410
      0100147CH   LINE      CODE     ---       #411
      0100147EH   LINE      CODE     ---       #412
      0100147EH   LINE      CODE     ---       #413
      01001483H   LINE      CODE     ---       #414
      01001483H   LINE      CODE     ---       #415
      01001483H   LINE      CODE     ---       #416
      01001485H   LINE      CODE     ---       #419
      0100148EH   LINE      CODE     ---       #420
      0100148EH   LINE      CODE     ---       #421
      ---         BLOCKEND  ---      ---       LVL=0

      01002777H   BLOCK     CODE     ---       LVL=0
      01002777H   LINE      CODE     ---       #424
      01002777H   LINE      CODE     ---       #425
      01002777H   LINE      CODE     ---       #430
      0100278EH   LINE      CODE     ---       #431
      0100278FH   LINE      CODE     ---       #432
      ---         BLOCKEND  ---      ---       LVL=0

      01002790H   BLOCK     CODE     ---       LVL=0
      01002790H   LINE      CODE     ---       #434
      01002796H   LINE      CODE     ---       #436
      0100279DH   LINE      CODE     ---       #437
      0100279DH   LINE      CODE     ---       #438
      010027A0H   LINE      CODE     ---       #439
LX51 LINKER/LOCATER V4.66.93.0                                                        12/24/2024  17:25:26  PAGE 32


      010027A2H   LINE      CODE     ---       #440
      010027A2H   LINE      CODE     ---       #441
      ---         BLOCKEND  ---      ---       LVL=0

      ---         MODULE    ---      ---       1602LCD
      010027D7H   PUBLIC    CODE     ---       LCD1602_Init
      01002458H   PUBLIC    CODE     ---       _LCD1602_Display_String
      0100248FH   PUBLIC    CODE     ---       _LCD_SetCursor
      010025E6H   PUBLIC    CODE     ---       _LCD1602_Wr_Command
      010025BAH   PUBLIC    CODE     ---       _LCD1602_Wr_Data
      0100255DH   PUBLIC    CODE     ---       LCD1602_RDbf
      000000DCH   SFRSYM    DATA     BYTE      PLLCR
      00000093H   SFRSYM    DATA     BYTE      P0M1
      00000092H   SFRSYM    DATA     BYTE      P1M0
      00000096H   SFRSYM    DATA     BYTE      P2M0
      00000091H   SFRSYM    DATA     BYTE      P1M1
      00000080H   SFRSYM    DATA     BYTE      P0
      000000B2H   SFRSYM    DATA     BYTE      P3M0
      00000095H   SFRSYM    DATA     BYTE      P2M1
      00000090H   SFRSYM    DATA     BYTE      P1
      000000B4H   SFRSYM    DATA     BYTE      P4M0
      000000B1H   SFRSYM    DATA     BYTE      P3M1
      000000A0H   SFRSYM    DATA     BYTE      P2
      000000CAH   SFRSYM    DATA     BYTE      P5M0
      000000B3H   SFRSYM    DATA     BYTE      P4M1
      000000B0H   SFRSYM    DATA     BYTE      P3
      000000ABH   SFRSYM    DATA     BYTE      WKTCH
      000000A0H.5 SFRSYM    DATA     BIT       LCD_1602_RS
      000000D0H.6 SFRSYM    DATA     BIT       AC
      000000CCH   SFRSYM    DATA     BYTE      P6M0
      000000C9H   SFRSYM    DATA     BYTE      P5M1
      000000C0H   SFRSYM    DATA     BYTE      P4
      000000B0H.4 SFRSYM    DATA     BIT       T0
      000000E2H   SFRSYM    DATA     BYTE      P7M0
      000000CBH   SFRSYM    DATA     BYTE      P6M1
      000000C8H   SFRSYM    DATA     BYTE      P5
      000000B0H.5 SFRSYM    DATA     BIT       T1
      000000E8H   SFRSYM    DATA     BYTE      P6
      000000E1H   SFRSYM    DATA     BYTE      P7M1
      000000A8H.7 SFRSYM    DATA     BIT       EA
      000000F8H   SFRSYM    DATA     BYTE      P7
      000000AAH   SFRSYM    DATA     BYTE      WKTCL
      000000A0H.6 SFRSYM    DATA     BIT       LCD_1602_RW
      000000CEH   SFRSYM    DATA     BYTE      SPCTL
      000000A2H   SFRSYM    DATA     BYTE      P_SW1
      000000BAH   SFRSYM    DATA     BYTE      P_SW2
      000000E5H   SFRSYM    DATA     BYTE      DPH1
      000000A8H.5 SFRSYM    DATA     BIT       EADC
      000000A8H   SFRSYM    DATA     BYTE      IE
      000000C5H   SFRSYM    DATA     BYTE      IAP_CMD
      000000E4H   SFRSYM    DATA     BYTE      DPL1
      000000BDH   SFRSYM    DATA     BYTE      ADC_RES
      000000B6H   SFRSYM    DATA     BYTE      IP2H
      000000EEH   SFRSYM    DATA     BYTE      IP3H
      000000AEH   SFRSYM    DATA     BYTE      TA
      000000B0H.7 SFRSYM    DATA     BIT       RD
      0000008FH   SFRSYM    DATA     BYTE      INTCLKO
      000000A8H.4 SFRSYM    DATA     BIT       ES
      000000B8H.5 SFRSYM    DATA     BIT       PADC
      000000B8H   SFRSYM    DATA     BYTE      IP
      000000DEH   SFRSYM    DATA     BYTE      ADCCFG
      00000098H.0 SFRSYM    DATA     BIT       RI
      000000D0H.7 SFRSYM    DATA     BIT       CY
      000000B0H.2 SFRSYM    DATA     BIT       INT0
      000000B0H.3 SFRSYM    DATA     BIT       INT1
LX51 LINKER/LOCATER V4.66.93.0                                                        12/24/2024  17:25:26  PAGE 33


      00000098H.1 SFRSYM    DATA     BIT       TI
      000000C3H   SFRSYM    DATA     BYTE      IAP_ADDRH
      000000A0H.7 SFRSYM    DATA     BIT       LCD_1602_E
      000000B8H.4 SFRSYM    DATA     BIT       PS
      00000081H   SFRSYM    DATA     BYTE      SP
      000000C4H   SFRSYM    DATA     BYTE      IAP_ADDRL
      000000D0H.2 SFRSYM    DATA     BIT       OV
      0000009EH   SFRSYM    DATA     BYTE      LIRTRIM
      000000E6H   SFRSYM    DATA     BYTE      CMPCR1
      000000E7H   SFRSYM    DATA     BYTE      CMPCR2
      000000B0H.6 SFRSYM    DATA     BIT       WR
      000000A8H.6 SFRSYM    DATA     BIT       ELVD
      00000080H.0 SFRSYM    DATA     BIT       P00
      000000BCH   SFRSYM    DATA     BYTE      ADC_CONTR
      00000099H   SFRSYM    DATA     BYTE      SBUF
      00000090H.0 SFRSYM    DATA     BIT       P10
      00000087H   SFRSYM    DATA     BYTE      PCON
      00000080H.1 SFRSYM    DATA     BIT       P01
      000000A0H.0 SFRSYM    DATA     BIT       P20
      00000090H.1 SFRSYM    DATA     BIT       P11
      00000080H.2 SFRSYM    DATA     BIT       P02
      000000F5H   SFRSYM    DATA     BYTE      IAP_TPS
      000000B0H.0 SFRSYM    DATA     BIT       P30
      000000A0H.1 SFRSYM    DATA     BIT       P21
      00000090H.2 SFRSYM    DATA     BIT       P12
      00000080H.3 SFRSYM    DATA     BIT       P03
      000000C0H.0 SFRSYM    DATA     BIT       P40
      000000B0H.1 SFRSYM    DATA     BIT       P31
      000000A0H.2 SFRSYM    DATA     BIT       P22
      00000098H   SFRSYM    DATA     BYTE      SCON
      00000090H.3 SFRSYM    DATA     BIT       P13
      00000080H.4 SFRSYM    DATA     BIT       P04
      000000C8H.0 SFRSYM    DATA     BIT       P50
      000000C0H.1 SFRSYM    DATA     BIT       P41
      000000B0H.2 SFRSYM    DATA     BIT       P32
      000000A0H.3 SFRSYM    DATA     BIT       P23
      00000090H.4 SFRSYM    DATA     BIT       P14
      00000089H   SFRSYM    DATA     BYTE      TMOD
      00000088H   SFRSYM    DATA     BYTE      TCON
      00000080H.5 SFRSYM    DATA     BIT       P05
      000000E8H.0 SFRSYM    DATA     BIT       P60
      000000C8H.1 SFRSYM    DATA     BIT       P51
      000000C0H.2 SFRSYM    DATA     BIT       P42
      000000B0H.3 SFRSYM    DATA     BIT       P33
      000000A0H.4 SFRSYM    DATA     BIT       P24
      00000090H.5 SFRSYM    DATA     BIT       P15
      00000080H.6 SFRSYM    DATA     BIT       P06
      000000F8H.0 SFRSYM    DATA     BIT       P70
      000000E8H.1 SFRSYM    DATA     BIT       P61
      000000C8H.2 SFRSYM    DATA     BIT       P52
      000000C0H.3 SFRSYM    DATA     BIT       P43
      000000B8H.6 SFRSYM    DATA     BIT       PLVD
      000000B0H.4 SFRSYM    DATA     BIT       P34
      000000A0H.5 SFRSYM    DATA     BIT       P25
      00000090H.6 SFRSYM    DATA     BIT       P16
      00000080H.7 SFRSYM    DATA     BIT       P07
      000000F8H.1 SFRSYM    DATA     BIT       P71
      000000E8H.2 SFRSYM    DATA     BIT       P62
      000000C8H.3 SFRSYM    DATA     BIT       P53
      000000C0H.4 SFRSYM    DATA     BIT       P44
      000000B0H.5 SFRSYM    DATA     BIT       P35
      000000A0H.6 SFRSYM    DATA     BIT       P26
      00000090H.7 SFRSYM    DATA     BIT       P17
      000000F8H.2 SFRSYM    DATA     BIT       P72
      000000E8H.3 SFRSYM    DATA     BIT       P63
LX51 LINKER/LOCATER V4.66.93.0                                                        12/24/2024  17:25:26  PAGE 34


      000000C8H.4 SFRSYM    DATA     BIT       P54
      000000C0H.5 SFRSYM    DATA     BIT       P45
      000000B0H.6 SFRSYM    DATA     BIT       P36
      000000A0H.7 SFRSYM    DATA     BIT       P27
      000000F8H.3 SFRSYM    DATA     BIT       P73
      000000E8H.4 SFRSYM    DATA     BIT       P64
      000000C8H.5 SFRSYM    DATA     BIT       P55
      000000C0H.6 SFRSYM    DATA     BIT       P46
      000000B0H.7 SFRSYM    DATA     BIT       P37
      000000F8H.4 SFRSYM    DATA     BIT       P74
      000000E8H.5 SFRSYM    DATA     BIT       P65
      000000C8H.6 SFRSYM    DATA     BIT       P56
      000000C0H.7 SFRSYM    DATA     BIT       P47
      000000F8H.5 SFRSYM    DATA     BIT       P75
      000000E8H.6 SFRSYM    DATA     BIT       P66
      000000C8H.7 SFRSYM    DATA     BIT       P57
      000000F8H.6 SFRSYM    DATA     BIT       P76
      000000E8H.7 SFRSYM    DATA     BIT       P67
      000000F8H.7 SFRSYM    DATA     BIT       P77
      000000A1H   SFRSYM    DATA     BYTE      BUS_SPEED
      00000088H.1 SFRSYM    DATA     BIT       IE0
      00000088H.3 SFRSYM    DATA     BIT       IE1
      000000AFH   SFRSYM    DATA     BYTE      IE2
      000000F0H   SFRSYM    DATA     BYTE      B
      0000008EH   SFRSYM    DATA     BYTE      AUXR
      000000FCH   SFRSYM    DATA     BYTE      USBADR
      000000C7H   SFRSYM    DATA     BYTE      IAP_CONTR
      000000ECH   SFRSYM    DATA     BYTE      USBDAT
      000000DCH   SFRSYM    DATA     BYTE      USBCLK
      000000E0H   SFRSYM    DATA     BYTE      ACC
      000000A8H.1 SFRSYM    DATA     BIT       ET0
      000000A8H.3 SFRSYM    DATA     BIT       ET1
      00000088H.5 SFRSYM    DATA     BIT       TF0
      000000FFH   SFRSYM    DATA     BYTE      RSTCFG
      000000B5H   SFRSYM    DATA     BYTE      IP2
      00000088H.7 SFRSYM    DATA     BIT       TF1
      000000F4H   SFRSYM    DATA     BYTE      USBCON
      000000DFH   SFRSYM    DATA     BYTE      IP3
      00000098H.2 SFRSYM    DATA     BIT       RB8
      0000008CH   SFRSYM    DATA     BYTE      TH0
      000000A8H.0 SFRSYM    DATA     BIT       EX0
      0000008DH   SFRSYM    DATA     BYTE      TH1
      00000088H.0 SFRSYM    DATA     BIT       IT0
      000000D6H   SFRSYM    DATA     BYTE      TH2
      000000D6H   SFRSYM    DATA     BYTE      T2H
      000000A8H.2 SFRSYM    DATA     BIT       EX1
      00000098H.3 SFRSYM    DATA     BIT       TB8
      00000088H.2 SFRSYM    DATA     BIT       IT1
      000000D4H   SFRSYM    DATA     BYTE      TH3
      000000D4H   SFRSYM    DATA     BYTE      T3H
      000000D0H.0 SFRSYM    DATA     BIT       P
      000000D2H   SFRSYM    DATA     BYTE      TH4
      000000D2H   SFRSYM    DATA     BYTE      T4H
      00000098H.7 SFRSYM    DATA     BIT       SM0
      0000008AH   SFRSYM    DATA     BYTE      TL0
      00000098H.6 SFRSYM    DATA     BIT       SM1
      0000008BH   SFRSYM    DATA     BYTE      TL1
      000000D7H   SFRSYM    DATA     BYTE      TL2
      000000D7H   SFRSYM    DATA     BYTE      T2L
      00000098H.5 SFRSYM    DATA     BIT       SM2
      000000D5H   SFRSYM    DATA     BYTE      TL3
      000000D5H   SFRSYM    DATA     BYTE      T3L
      000000D3H   SFRSYM    DATA     BYTE      TL4
      000000D3H   SFRSYM    DATA     BYTE      T4L
      000000B8H.1 SFRSYM    DATA     BIT       PT0
LX51 LINKER/LOCATER V4.66.93.0                                                        12/24/2024  17:25:26  PAGE 35


      000000D0H.3 SFRSYM    DATA     BIT       RS0
      000000B8H.3 SFRSYM    DATA     BIT       PT1
      000000D0H.4 SFRSYM    DATA     BIT       RS1
      000000C2H   SFRSYM    DATA     BYTE      IAP_DATA
      00000088H.4 SFRSYM    DATA     BIT       TR0
      00000088H.6 SFRSYM    DATA     BIT       TR1
      000000C1H   SFRSYM    DATA     BYTE      WDT_CONTR
      000000B8H.0 SFRSYM    DATA     BIT       PX0
      000000B8H.2 SFRSYM    DATA     BIT       PX1
      0000009FH   SFRSYM    DATA     BYTE      IRTRIM
      00000083H   SFRSYM    DATA     BYTE      DPH
      000000D1H   SFRSYM    DATA     BYTE      T3T4M
      000000D1H   SFRSYM    DATA     BYTE      T4T3M
      000000BEH   SFRSYM    DATA     BYTE      ADC_RESL
      00000082H   SFRSYM    DATA     BYTE      DPL
      000000CDH   SFRSYM    DATA     BYTE      SPSTAT
      000000B7H   SFRSYM    DATA     BYTE      IPH
      000000EDH   SFRSYM    DATA     BYTE      MDU32CR
      0000009BH   SFRSYM    DATA     BYTE      S2BUF
      000000ADH   SFRSYM    DATA     BYTE      S3BUF
      00000098H.4 SFRSYM    DATA     BIT       REN
      00000085H   SFRSYM    DATA     BYTE      S4BUF
      000000A6H   SFRSYM    DATA     BYTE      VRTRIM
      0000009AH   SFRSYM    DATA     BYTE      S2CON
      000000E3H   SFRSYM    DATA     BYTE      DPS
      000000ACH   SFRSYM    DATA     BYTE      S3CON
      00000084H   SFRSYM    DATA     BYTE      S4CON
      000000EFH   SFRSYM    DATA     BYTE      AUXINTIF
      000000B9H   SFRSYM    DATA     BYTE      SADEN
      000000B0H.0 SFRSYM    DATA     BIT       RXD
      000000A9H   SFRSYM    DATA     BYTE      SADDR
      000000B0H.1 SFRSYM    DATA     BIT       TXD
      000000DDH   SFRSYM    DATA     BYTE      MDU32SR
      000000C6H   SFRSYM    DATA     BYTE      IAP_TRIG
      000000D0H.5 SFRSYM    DATA     BIT       F0
      0000009DH   SFRSYM    DATA     BYTE      IRCBAND
      000000D0H.1 SFRSYM    DATA     BIT       F1
      000000D0H   SFRSYM    DATA     BYTE      PSW
      000000CFH   SFRSYM    DATA     BYTE      SPDAT
      00000094H   SFRSYM    DATA     BYTE      P0M0

      0100255DH   BLOCK     CODE     ---       LVL=0
      0100255DH   BLOCK     CODE     NEAR LAB  LVL=1
      020001A0H   SYMBOL    XDATA    BYTE      sta
      ---         BLOCKEND  ---      ---       LVL=1
      0100255DH   LINE      CODE     ---       #3
      0100255DH   LINE      CODE     ---       #4
      0100255DH   LINE      CODE     ---       #6
      01002560H   LINE      CODE     ---       #7
      01002562H   LINE      CODE     ---       #8
      01002564H   LINE      CODE     ---       #9
      01002564H   LINE      CODE     ---       #10
      01002564H   LINE      CODE     ---       #11
      01002566H   LINE      CODE     ---       #12
      0100256DH   LINE      CODE     ---       #13
      01002573H   LINE      CODE     ---       #14
      0100257AH   LINE      CODE     ---       #15
      0100257CH   LINE      CODE     ---       #16
      01002583H   LINE      CODE     ---       #17
      0100258BH   LINE      CODE     ---       #18
      0100258BH   LINE      CODE     ---       #19
      0100258BH   LINE      CODE     ---       #20
      0100258BH   LINE      CODE     ---       #21
      0100258BH   LINE      CODE     ---       #22
      ---         BLOCKEND  ---      ---       LVL=0
LX51 LINKER/LOCATER V4.66.93.0                                                        12/24/2024  17:25:26  PAGE 36



      010025BAH   BLOCK     CODE     ---       LVL=0
      0200019BH   SYMBOL    XDATA    BYTE      wrdata
      010025BAH   LINE      CODE     ---       #24
      010025BFH   LINE      CODE     ---       #25
      010025BFH   LINE      CODE     ---       #26
      010025C2H   LINE      CODE     ---       #27
      010025C4H   LINE      CODE     ---       #28
      010025C6H   LINE      CODE     ---       #29
      010025CDH   LINE      CODE     ---       #30
      010025D3H   LINE      CODE     ---       #31
      010025DAH   LINE      CODE     ---       #32
      010025DCH   LINE      CODE     ---       #33
      010025E3H   LINE      CODE     ---       #34
      010025E5H   LINE      CODE     ---       #35
      ---         BLOCKEND  ---      ---       LVL=0

      010025E6H   BLOCK     CODE     ---       LVL=0
      0200019FH   SYMBOL    XDATA    BYTE      wrcommand
      010025E6H   LINE      CODE     ---       #37
      010025EBH   LINE      CODE     ---       #38
      010025EBH   LINE      CODE     ---       #39
      010025EEH   LINE      CODE     ---       #40
      010025F0H   LINE      CODE     ---       #41
      010025F2H   LINE      CODE     ---       #42
      010025F9H   LINE      CODE     ---       #43
      010025FFH   LINE      CODE     ---       #44
      01002606H   LINE      CODE     ---       #45
      01002608H   LINE      CODE     ---       #46
      0100260FH   LINE      CODE     ---       #47
      01002611H   LINE      CODE     ---       #48
      ---         BLOCKEND  ---      ---       LVL=0

      0100248FH   BLOCK     CODE     ---       LVL=0
      0200019BH   SYMBOL    XDATA    WORD      Line
      0200019DH   SYMBOL    XDATA    WORD      Column
      0100248FH   LINE      CODE     ---       #55
      0100249FH   LINE      CODE     ---       #56
      0100249FH   LINE      CODE     ---       #57
      010024A4H   LINE      CODE     ---       #58
      010024A4H   LINE      CODE     ---       #59
      010024A8H   LINE      CODE     ---       #60
      010024AAH   LINE      CODE     ---       #61
      010024B6H   LINE      CODE     ---       #62
      010024B6H   LINE      CODE     ---       #63
      010024C3H   LINE      CODE     ---       #64
      010024C3H   LINE      CODE     ---       #65
      ---         BLOCKEND  ---      ---       LVL=0
      00000006H   SYMBOL    DATA     WORD      Line
      00000004H   SYMBOL    DATA     WORD      Column

      01002458H   BLOCK     CODE     ---       LVL=0
      00000006H   SYMBOL    DATA     WORD      Line
      00000004H   SYMBOL    DATA     WORD      Column
      02000197H   SYMBOL    XDATA    ---       String
      01002463H   BLOCK     CODE     NEAR LAB  LVL=1
      0200019AH   SYMBOL    XDATA    BYTE      i
      ---         BLOCKEND  ---      ---       LVL=1
      01002458H   LINE      CODE     ---       #80
      01002463H   LINE      CODE     ---       #81
      01002463H   LINE      CODE     ---       #83
      01002466H   LINE      CODE     ---       #84
      01002483H   LINE      CODE     ---       #85
      01002483H   LINE      CODE     ---       #86
      01002486H   LINE      CODE     ---       #87
LX51 LINKER/LOCATER V4.66.93.0                                                        12/24/2024  17:25:26  PAGE 37


      0100248EH   LINE      CODE     ---       #88
      ---         BLOCKEND  ---      ---       LVL=0

      010027D7H   BLOCK     CODE     ---       LVL=0
      010027D7H   LINE      CODE     ---       #90
      010027D7H   LINE      CODE     ---       #91
      010027D7H   LINE      CODE     ---       #92
      010027DCH   LINE      CODE     ---       #93
      010027E1H   LINE      CODE     ---       #94
      010027E6H   LINE      CODE     ---       #95
      ---         BLOCKEND  ---      ---       LVL=0

      ---         MODULE    ---      ---       HX711
      01001835H   PUBLIC    CODE     ---       read_weight_base
      02000197H   PUBLIC    XDATA    BYTE      ?_read_weight?BYTE
      01001D79H   PUBLIC    CODE     ---       _read_weight
      01001CF0H   PUBLIC    CODE     ---       ReadCount
      000000DCH   SFRSYM    DATA     BYTE      PLLCR
      00000093H   SFRSYM    DATA     BYTE      P0M1
      00000092H   SFRSYM    DATA     BYTE      P1M0
      00000096H   SFRSYM    DATA     BYTE      P2M0
      00000091H   SFRSYM    DATA     BYTE      P1M1
      00000080H   SFRSYM    DATA     BYTE      P0
      000000B2H   SFRSYM    DATA     BYTE      P3M0
      00000095H   SFRSYM    DATA     BYTE      P2M1
      00000090H   SFRSYM    DATA     BYTE      P1
      000000B4H   SFRSYM    DATA     BYTE      P4M0
      000000B1H   SFRSYM    DATA     BYTE      P3M1
      000000A0H   SFRSYM    DATA     BYTE      P2
      000000CAH   SFRSYM    DATA     BYTE      P5M0
      000000B3H   SFRSYM    DATA     BYTE      P4M1
      000000B0H   SFRSYM    DATA     BYTE      P3
      000000ABH   SFRSYM    DATA     BYTE      WKTCH
      000000A0H.5 SFRSYM    DATA     BIT       LCD_1602_RS
      000000D0H.6 SFRSYM    DATA     BIT       AC
      000000CCH   SFRSYM    DATA     BYTE      P6M0
      000000C9H   SFRSYM    DATA     BYTE      P5M1
      000000C0H   SFRSYM    DATA     BYTE      P4
      000000B0H.4 SFRSYM    DATA     BIT       T0
      000000E2H   SFRSYM    DATA     BYTE      P7M0
      000000CBH   SFRSYM    DATA     BYTE      P6M1
      000000C8H   SFRSYM    DATA     BYTE      P5
      000000B0H.5 SFRSYM    DATA     BIT       T1
      000000E8H   SFRSYM    DATA     BYTE      P6
      000000E1H   SFRSYM    DATA     BYTE      P7M1
      000000A8H.7 SFRSYM    DATA     BIT       EA
      000000A0H.0 SFRSYM    DATA     BIT       LED1
      000000F8H   SFRSYM    DATA     BYTE      P7
      000000AAH   SFRSYM    DATA     BYTE      WKTCL
      000000C8H.0 SFRSYM    DATA     BIT       LED2
      000000A0H.6 SFRSYM    DATA     BIT       LCD_1602_RW
      000000CEH   SFRSYM    DATA     BYTE      SPCTL
      000000B0H.4 SFRSYM    DATA     BIT       LED3
      000000A2H   SFRSYM    DATA     BYTE      P_SW1
      000000BAH   SFRSYM    DATA     BYTE      P_SW2
      000000E5H   SFRSYM    DATA     BYTE      DPH1
      000000A8H.5 SFRSYM    DATA     BIT       EADC
      000000A8H   SFRSYM    DATA     BYTE      IE
      000000C5H   SFRSYM    DATA     BYTE      IAP_CMD
      000000E4H   SFRSYM    DATA     BYTE      DPL1
      000000BDH   SFRSYM    DATA     BYTE      ADC_RES
      000000B6H   SFRSYM    DATA     BYTE      IP2H
      000000EEH   SFRSYM    DATA     BYTE      IP3H
      000000AEH   SFRSYM    DATA     BYTE      TA
      000000B0H.7 SFRSYM    DATA     BIT       RD
LX51 LINKER/LOCATER V4.66.93.0                                                        12/24/2024  17:25:26  PAGE 38


      0000008FH   SFRSYM    DATA     BYTE      INTCLKO
      000000A8H.4 SFRSYM    DATA     BIT       ES
      00000090H.1 SFRSYM    DATA     BIT       ADDO
      000000B8H.5 SFRSYM    DATA     BIT       PADC
      000000B8H   SFRSYM    DATA     BYTE      IP
      000000DEH   SFRSYM    DATA     BYTE      ADCCFG
      00000098H.0 SFRSYM    DATA     BIT       RI
      000000D0H.7 SFRSYM    DATA     BIT       CY
      000000B0H.2 SFRSYM    DATA     BIT       INT0
      000000A0H.4 SFRSYM    DATA     BIT       BEEP
      000000B0H.3 SFRSYM    DATA     BIT       INT1
      00000098H.1 SFRSYM    DATA     BIT       TI
      000000C3H   SFRSYM    DATA     BYTE      IAP_ADDRH
      000000A0H.7 SFRSYM    DATA     BIT       LCD_1602_E
      000000B8H.4 SFRSYM    DATA     BIT       PS
      00000081H   SFRSYM    DATA     BYTE      SP
      000000C0H.7 SFRSYM    DATA     BIT       ADSK
      000000C4H   SFRSYM    DATA     BYTE      IAP_ADDRL
      000000D0H.2 SFRSYM    DATA     BIT       OV
      0000009EH   SFRSYM    DATA     BYTE      LIRTRIM
      000000E6H   SFRSYM    DATA     BYTE      CMPCR1
      000000E7H   SFRSYM    DATA     BYTE      CMPCR2
      000000B0H.6 SFRSYM    DATA     BIT       WR
      000000A8H.6 SFRSYM    DATA     BIT       ELVD
      00000080H.0 SFRSYM    DATA     BIT       P00
      000000BCH   SFRSYM    DATA     BYTE      ADC_CONTR
      00000099H   SFRSYM    DATA     BYTE      SBUF
      00000090H.0 SFRSYM    DATA     BIT       P10
      00000087H   SFRSYM    DATA     BYTE      PCON
      00000080H.1 SFRSYM    DATA     BIT       P01
      000000A0H.0 SFRSYM    DATA     BIT       P20
      00000090H.1 SFRSYM    DATA     BIT       P11
      00000080H.2 SFRSYM    DATA     BIT       P02
      000000F5H   SFRSYM    DATA     BYTE      IAP_TPS
      000000B0H.0 SFRSYM    DATA     BIT       P30
      000000A0H.1 SFRSYM    DATA     BIT       P21
      00000090H.2 SFRSYM    DATA     BIT       P12
      00000080H.3 SFRSYM    DATA     BIT       P03
      000000C0H.0 SFRSYM    DATA     BIT       P40
      000000B0H.1 SFRSYM    DATA     BIT       P31
      000000A0H.2 SFRSYM    DATA     BIT       P22
      00000098H   SFRSYM    DATA     BYTE      SCON
      00000090H.3 SFRSYM    DATA     BIT       P13
      00000080H.4 SFRSYM    DATA     BIT       P04
      000000C8H.0 SFRSYM    DATA     BIT       P50
      000000C0H.1 SFRSYM    DATA     BIT       P41
      000000B0H.2 SFRSYM    DATA     BIT       P32
      000000A0H.3 SFRSYM    DATA     BIT       P23
      00000090H.4 SFRSYM    DATA     BIT       P14
      00000089H   SFRSYM    DATA     BYTE      TMOD
      00000088H   SFRSYM    DATA     BYTE      TCON
      00000080H.5 SFRSYM    DATA     BIT       P05
      000000E8H.0 SFRSYM    DATA     BIT       P60
      000000C8H.1 SFRSYM    DATA     BIT       P51
      000000C0H.2 SFRSYM    DATA     BIT       P42
      000000B0H.3 SFRSYM    DATA     BIT       P33
      000000A0H.4 SFRSYM    DATA     BIT       P24
      00000090H.5 SFRSYM    DATA     BIT       P15
      00000080H.6 SFRSYM    DATA     BIT       P06
      000000F8H.0 SFRSYM    DATA     BIT       P70
      000000E8H.1 SFRSYM    DATA     BIT       P61
      000000C8H.2 SFRSYM    DATA     BIT       P52
      000000C0H.3 SFRSYM    DATA     BIT       P43
      000000B8H.6 SFRSYM    DATA     BIT       PLVD
      000000B0H.4 SFRSYM    DATA     BIT       P34
LX51 LINKER/LOCATER V4.66.93.0                                                        12/24/2024  17:25:26  PAGE 39


      000000A0H.5 SFRSYM    DATA     BIT       P25
      00000090H.6 SFRSYM    DATA     BIT       P16
      00000080H.7 SFRSYM    DATA     BIT       P07
      000000F8H.1 SFRSYM    DATA     BIT       P71
      000000E8H.2 SFRSYM    DATA     BIT       P62
      000000C8H.3 SFRSYM    DATA     BIT       P53
      000000C0H.4 SFRSYM    DATA     BIT       P44
      000000B0H.5 SFRSYM    DATA     BIT       P35
      000000A0H.6 SFRSYM    DATA     BIT       P26
      00000090H.7 SFRSYM    DATA     BIT       P17
      000000F8H.2 SFRSYM    DATA     BIT       P72
      000000E8H.3 SFRSYM    DATA     BIT       P63
      000000C8H.4 SFRSYM    DATA     BIT       P54
      000000C0H.5 SFRSYM    DATA     BIT       P45
      000000B0H.6 SFRSYM    DATA     BIT       P36
      000000A0H.7 SFRSYM    DATA     BIT       P27
      000000F8H.3 SFRSYM    DATA     BIT       P73
      000000E8H.4 SFRSYM    DATA     BIT       P64
      000000C8H.5 SFRSYM    DATA     BIT       P55
      000000C0H.6 SFRSYM    DATA     BIT       P46
      000000B0H.7 SFRSYM    DATA     BIT       P37
      000000F8H.4 SFRSYM    DATA     BIT       P74
      000000E8H.5 SFRSYM    DATA     BIT       P65
      000000C8H.6 SFRSYM    DATA     BIT       P56
      000000C0H.7 SFRSYM    DATA     BIT       P47
      000000F8H.5 SFRSYM    DATA     BIT       P75
      000000E8H.6 SFRSYM    DATA     BIT       P66
      000000C8H.7 SFRSYM    DATA     BIT       P57
      000000F8H.6 SFRSYM    DATA     BIT       P76
      000000E8H.7 SFRSYM    DATA     BIT       P67
      000000F8H.7 SFRSYM    DATA     BIT       P77
      000000A1H   SFRSYM    DATA     BYTE      BUS_SPEED
      00000088H.1 SFRSYM    DATA     BIT       IE0
      00000088H.3 SFRSYM    DATA     BIT       IE1
      000000AFH   SFRSYM    DATA     BYTE      IE2
      000000F0H   SFRSYM    DATA     BYTE      B
      0000008EH   SFRSYM    DATA     BYTE      AUXR
      000000FCH   SFRSYM    DATA     BYTE      USBADR
      000000C7H   SFRSYM    DATA     BYTE      IAP_CONTR
      000000ECH   SFRSYM    DATA     BYTE      USBDAT
      000000DCH   SFRSYM    DATA     BYTE      USBCLK
      000000E0H   SFRSYM    DATA     BYTE      ACC
      000000A8H.1 SFRSYM    DATA     BIT       ET0
      000000A8H.3 SFRSYM    DATA     BIT       ET1
      00000088H.5 SFRSYM    DATA     BIT       TF0
      000000FFH   SFRSYM    DATA     BYTE      RSTCFG
      000000B5H   SFRSYM    DATA     BYTE      IP2
      00000088H.7 SFRSYM    DATA     BIT       TF1
      000000F4H   SFRSYM    DATA     BYTE      USBCON
      000000DFH   SFRSYM    DATA     BYTE      IP3
      00000098H.2 SFRSYM    DATA     BIT       RB8
      0000008CH   SFRSYM    DATA     BYTE      TH0
      000000A8H.0 SFRSYM    DATA     BIT       EX0
      0000008DH   SFRSYM    DATA     BYTE      TH1
      00000088H.0 SFRSYM    DATA     BIT       IT0
      000000D6H   SFRSYM    DATA     BYTE      TH2
      000000D6H   SFRSYM    DATA     BYTE      T2H
      000000A8H.2 SFRSYM    DATA     BIT       EX1
      00000098H.3 SFRSYM    DATA     BIT       TB8
      00000088H.2 SFRSYM    DATA     BIT       IT1
      000000D4H   SFRSYM    DATA     BYTE      TH3
      000000D4H   SFRSYM    DATA     BYTE      T3H
      000000D0H.0 SFRSYM    DATA     BIT       P
      000000D2H   SFRSYM    DATA     BYTE      TH4
      000000D2H   SFRSYM    DATA     BYTE      T4H
LX51 LINKER/LOCATER V4.66.93.0                                                        12/24/2024  17:25:26  PAGE 40


      00000098H.7 SFRSYM    DATA     BIT       SM0
      0000008AH   SFRSYM    DATA     BYTE      TL0
      00000098H.6 SFRSYM    DATA     BIT       SM1
      0000008BH   SFRSYM    DATA     BYTE      TL1
      000000D7H   SFRSYM    DATA     BYTE      TL2
      000000D7H   SFRSYM    DATA     BYTE      T2L
      00000098H.5 SFRSYM    DATA     BIT       SM2
      000000D5H   SFRSYM    DATA     BYTE      TL3
      000000D5H   SFRSYM    DATA     BYTE      T3L
      000000D3H   SFRSYM    DATA     BYTE      TL4
      000000D3H   SFRSYM    DATA     BYTE      T4L
      000000B8H.1 SFRSYM    DATA     BIT       PT0
      000000D0H.3 SFRSYM    DATA     BIT       RS0
      000000B8H.3 SFRSYM    DATA     BIT       PT1
      000000D0H.4 SFRSYM    DATA     BIT       RS1
      000000C2H   SFRSYM    DATA     BYTE      IAP_DATA
      00000088H.4 SFRSYM    DATA     BIT       TR0
      00000088H.6 SFRSYM    DATA     BIT       TR1
      00000090H.4 SFRSYM    DATA     BIT       SDA
      000000C1H   SFRSYM    DATA     BYTE      WDT_CONTR
      000000B8H.0 SFRSYM    DATA     BIT       PX0
      000000B8H.2 SFRSYM    DATA     BIT       PX1
      0000009FH   SFRSYM    DATA     BYTE      IRTRIM
      000000B0H.6 SFRSYM    DATA     BIT       Key1
      000000C0H.6 SFRSYM    DATA     BIT       Key2
      00000083H   SFRSYM    DATA     BYTE      DPH
      000000A0H.3 SFRSYM    DATA     BIT       Key3
      000000D1H   SFRSYM    DATA     BYTE      T3T4M
      000000D1H   SFRSYM    DATA     BYTE      T4T3M
      00000090H.0 SFRSYM    DATA     BIT       Key4
      000000BEH   SFRSYM    DATA     BYTE      ADC_RESL
      00000082H   SFRSYM    DATA     BYTE      DPL
      000000CDH   SFRSYM    DATA     BYTE      SPSTAT
      000000B7H   SFRSYM    DATA     BYTE      IPH
      00000090H.5 SFRSYM    DATA     BIT       SCL
      000000EDH   SFRSYM    DATA     BYTE      MDU32CR
      0000009BH   SFRSYM    DATA     BYTE      S2BUF
      000000ADH   SFRSYM    DATA     BYTE      S3BUF
      00000098H.4 SFRSYM    DATA     BIT       REN
      00000085H   SFRSYM    DATA     BYTE      S4BUF
      000000A6H   SFRSYM    DATA     BYTE      VRTRIM
      0000009AH   SFRSYM    DATA     BYTE      S2CON
      000000E3H   SFRSYM    DATA     BYTE      DPS
      000000ACH   SFRSYM    DATA     BYTE      S3CON
      00000084H   SFRSYM    DATA     BYTE      S4CON
      000000EFH   SFRSYM    DATA     BYTE      AUXINTIF
      000000B9H   SFRSYM    DATA     BYTE      SADEN
      000000B0H.0 SFRSYM    DATA     BIT       RXD
      000000A9H   SFRSYM    DATA     BYTE      SADDR
      000000B0H.1 SFRSYM    DATA     BIT       TXD
      000000DDH   SFRSYM    DATA     BYTE      MDU32SR
      000000C6H   SFRSYM    DATA     BYTE      IAP_TRIG
      000000D0H.5 SFRSYM    DATA     BIT       F0
      0000009DH   SFRSYM    DATA     BYTE      IRCBAND
      000000D0H.1 SFRSYM    DATA     BIT       F1
      000000D0H   SFRSYM    DATA     BYTE      PSW
      000000CFH   SFRSYM    DATA     BYTE      SPDAT
      00000094H   SFRSYM    DATA     BYTE      P0M0
      00000023H.3 SYMBOL    BIT      BIT       busy

      01001CF0H   BLOCK     CODE     ---       LVL=0
      01001CF0H   BLOCK     CODE     NEAR LAB  LVL=1
      020001A1H   SYMBOL    XDATA    DWORD     Count
      00000003H   SYMBOL    DATA     BYTE      i
      ---         BLOCKEND  ---      ---       LVL=1
LX51 LINKER/LOCATER V4.66.93.0                                                        12/24/2024  17:25:26  PAGE 41


      01001CF0H   LINE      CODE     ---       #3
      01001CF0H   LINE      CODE     ---       #4
      01001CF0H   LINE      CODE     ---       #7
      01001CF2H   LINE      CODE     ---       #8
      01001CFCH   LINE      CODE     ---       #9
      01001CFFH   LINE      CODE     ---       #10
      01001CFFH   LINE      CODE     ---       #11
      01001CFFH   LINE      CODE     ---       #12
      01001D0BH   LINE      CODE     ---       #13
      01001D0BH   LINE      CODE     ---       #14
      01001D0DH   LINE      CODE     ---       #15
      01001D26H   LINE      CODE     ---       #16
      01001D28H   LINE      CODE     ---       #17
      01001D2BH   LINE      CODE     ---       #18
      01001D2BH   LINE      CODE     ---       #19
      01001D4AH   LINE      CODE     ---       #20
      01001D4AH   LINE      CODE     ---       #21
      01001D4DH   LINE      CODE     ---       #23
      01001D4FH   LINE      CODE     ---       #24
      01001D68H   LINE      CODE     ---       #25
      01001D6AH   LINE      CODE     ---       #26
      01001D78H   LINE      CODE     ---       #27
      ---         BLOCKEND  ---      ---       LVL=0

      01001D79H   BLOCK     CODE     ---       LVL=0
      02000197H   SYMBOL    XDATA    WORD      k
      02000199H   SYMBOL    XDATA    DWORD     b
      01001D81H   BLOCK     CODE     NEAR LAB  LVL=1
      0200019DH   SYMBOL    XDATA    DWORD     w
      00000006H   SYMBOL    DATA     WORD      r
      ---         BLOCKEND  ---      ---       LVL=1
      01001D79H   LINE      CODE     ---       #29
      01001D81H   LINE      CODE     ---       #30
      01001D81H   LINE      CODE     ---       #33
      01001D8AH   LINE      CODE     ---       #34
      01001DAAH   LINE      CODE     ---       #35
      01001DAAH   LINE      CODE     ---       #36
      01001DBCH   LINE      CODE     ---       #37
      01001DBCH   LINE      CODE     ---       #38
      ---         BLOCKEND  ---      ---       LVL=0

      01001835H   BLOCK     CODE     ---       LVL=0
      01001835H   BLOCK     CODE     NEAR LAB  LVL=1
      02000197H   SYMBOL    XDATA    WORD      i
      02000199H   SYMBOL    XDATA    DWORD     w
      0200019DH   SYMBOL    XDATA    DWORD     weight_base
      ---         BLOCKEND  ---      ---       LVL=1
      01001835H   LINE      CODE     ---       #42
      01001835H   LINE      CODE     ---       #43
      01001835H   LINE      CODE     ---       #45
      0100183FH   LINE      CODE     ---       #46
      01001849H   LINE      CODE     ---       #47
      01001850H   LINE      CODE     ---       #48
      01001850H   LINE      CODE     ---       #49
      01001859H   LINE      CODE     ---       #50
      01001885H   LINE      CODE     ---       #51
      0100188CH   LINE      CODE     ---       #52
      010018A9H   LINE      CODE     ---       #53
      010018C6H   LINE      CODE     ---       #54
      010018D4H   LINE      CODE     ---       #55
      ---         BLOCKEND  ---      ---       LVL=0

      ---         MODULE    ---      ---       SYSTICK
      0200023FH   PUBLIC    XDATA    DWORD     tick
      0100241FH   PUBLIC    CODE     ---       _DelayTick
LX51 LINKER/LOCATER V4.66.93.0                                                        12/24/2024  17:25:26  PAGE 42


      010027FEH   PUBLIC    CODE     ---       Get_Tikc
      010027EBH   PUBLIC    CODE     ---       Timer0_Init
      01002248H   PUBLIC    CODE     ---       Timer0_Isr
      000000DCH   SFRSYM    DATA     BYTE      PLLCR
      00000093H   SFRSYM    DATA     BYTE      P0M1
      00000092H   SFRSYM    DATA     BYTE      P1M0
      00000096H   SFRSYM    DATA     BYTE      P2M0
      00000091H   SFRSYM    DATA     BYTE      P1M1
      00000080H   SFRSYM    DATA     BYTE      P0
      000000B2H   SFRSYM    DATA     BYTE      P3M0
      00000095H   SFRSYM    DATA     BYTE      P2M1
      00000090H   SFRSYM    DATA     BYTE      P1
      000000B4H   SFRSYM    DATA     BYTE      P4M0
      000000B1H   SFRSYM    DATA     BYTE      P3M1
      000000A0H   SFRSYM    DATA     BYTE      P2
      000000CAH   SFRSYM    DATA     BYTE      P5M0
      000000B3H   SFRSYM    DATA     BYTE      P4M1
      000000B0H   SFRSYM    DATA     BYTE      P3
      000000ABH   SFRSYM    DATA     BYTE      WKTCH
      000000D0H.6 SFRSYM    DATA     BIT       AC
      000000CCH   SFRSYM    DATA     BYTE      P6M0
      000000C9H   SFRSYM    DATA     BYTE      P5M1
      000000C0H   SFRSYM    DATA     BYTE      P4
      000000B0H.4 SFRSYM    DATA     BIT       T0
      000000E2H   SFRSYM    DATA     BYTE      P7M0
      000000CBH   SFRSYM    DATA     BYTE      P6M1
      000000C8H   SFRSYM    DATA     BYTE      P5
      000000B0H.5 SFRSYM    DATA     BIT       T1
      000000E8H   SFRSYM    DATA     BYTE      P6
      000000E1H   SFRSYM    DATA     BYTE      P7M1
      000000A8H.7 SFRSYM    DATA     BIT       EA
      000000F8H   SFRSYM    DATA     BYTE      P7
      000000AAH   SFRSYM    DATA     BYTE      WKTCL
      000000CEH   SFRSYM    DATA     BYTE      SPCTL
      000000A2H   SFRSYM    DATA     BYTE      P_SW1
      000000BAH   SFRSYM    DATA     BYTE      P_SW2
      000000E5H   SFRSYM    DATA     BYTE      DPH1
      000000A8H.5 SFRSYM    DATA     BIT       EADC
      000000A8H   SFRSYM    DATA     BYTE      IE
      000000C5H   SFRSYM    DATA     BYTE      IAP_CMD
      000000E4H   SFRSYM    DATA     BYTE      DPL1
      000000BDH   SFRSYM    DATA     BYTE      ADC_RES
      000000B6H   SFRSYM    DATA     BYTE      IP2H
      000000EEH   SFRSYM    DATA     BYTE      IP3H
      000000AEH   SFRSYM    DATA     BYTE      TA
      000000B0H.7 SFRSYM    DATA     BIT       RD
      0000008FH   SFRSYM    DATA     BYTE      INTCLKO
      000000A8H.4 SFRSYM    DATA     BIT       ES
      000000B8H.5 SFRSYM    DATA     BIT       PADC
      000000B8H   SFRSYM    DATA     BYTE      IP
      000000DEH   SFRSYM    DATA     BYTE      ADCCFG
      00000098H.0 SFRSYM    DATA     BIT       RI
      000000D0H.7 SFRSYM    DATA     BIT       CY
      000000B0H.2 SFRSYM    DATA     BIT       INT0
      000000B0H.3 SFRSYM    DATA     BIT       INT1
      00000098H.1 SFRSYM    DATA     BIT       TI
      000000C3H   SFRSYM    DATA     BYTE      IAP_ADDRH
      000000B8H.4 SFRSYM    DATA     BIT       PS
      00000081H   SFRSYM    DATA     BYTE      SP
      000000C4H   SFRSYM    DATA     BYTE      IAP_ADDRL
      000000D0H.2 SFRSYM    DATA     BIT       OV
      0000009EH   SFRSYM    DATA     BYTE      LIRTRIM
      000000E6H   SFRSYM    DATA     BYTE      CMPCR1
      000000E7H   SFRSYM    DATA     BYTE      CMPCR2
      000000B0H.6 SFRSYM    DATA     BIT       WR
LX51 LINKER/LOCATER V4.66.93.0                                                        12/24/2024  17:25:26  PAGE 43


      000000A8H.6 SFRSYM    DATA     BIT       ELVD
      00000080H.0 SFRSYM    DATA     BIT       P00
      000000BCH   SFRSYM    DATA     BYTE      ADC_CONTR
      00000099H   SFRSYM    DATA     BYTE      SBUF
      00000090H.0 SFRSYM    DATA     BIT       P10
      00000087H   SFRSYM    DATA     BYTE      PCON
      00000080H.1 SFRSYM    DATA     BIT       P01
      000000A0H.0 SFRSYM    DATA     BIT       P20
      00000090H.1 SFRSYM    DATA     BIT       P11
      00000080H.2 SFRSYM    DATA     BIT       P02
      000000F5H   SFRSYM    DATA     BYTE      IAP_TPS
      000000B0H.0 SFRSYM    DATA     BIT       P30
      000000A0H.1 SFRSYM    DATA     BIT       P21
      00000090H.2 SFRSYM    DATA     BIT       P12
      00000080H.3 SFRSYM    DATA     BIT       P03
      000000C0H.0 SFRSYM    DATA     BIT       P40
      000000B0H.1 SFRSYM    DATA     BIT       P31
      000000A0H.2 SFRSYM    DATA     BIT       P22
      00000098H   SFRSYM    DATA     BYTE      SCON
      00000090H.3 SFRSYM    DATA     BIT       P13
      00000080H.4 SFRSYM    DATA     BIT       P04
      000000C8H.0 SFRSYM    DATA     BIT       P50
      000000C0H.1 SFRSYM    DATA     BIT       P41
      000000B0H.2 SFRSYM    DATA     BIT       P32
      000000A0H.3 SFRSYM    DATA     BIT       P23
      00000090H.4 SFRSYM    DATA     BIT       P14
      00000089H   SFRSYM    DATA     BYTE      TMOD
      00000088H   SFRSYM    DATA     BYTE      TCON
      00000080H.5 SFRSYM    DATA     BIT       P05
      000000E8H.0 SFRSYM    DATA     BIT       P60
      000000C8H.1 SFRSYM    DATA     BIT       P51
      000000C0H.2 SFRSYM    DATA     BIT       P42
      000000B0H.3 SFRSYM    DATA     BIT       P33
      000000A0H.4 SFRSYM    DATA     BIT       P24
      00000090H.5 SFRSYM    DATA     BIT       P15
      00000080H.6 SFRSYM    DATA     BIT       P06
      000000F8H.0 SFRSYM    DATA     BIT       P70
      000000E8H.1 SFRSYM    DATA     BIT       P61
      000000C8H.2 SFRSYM    DATA     BIT       P52
      000000C0H.3 SFRSYM    DATA     BIT       P43
      000000B8H.6 SFRSYM    DATA     BIT       PLVD
      000000B0H.4 SFRSYM    DATA     BIT       P34
      000000A0H.5 SFRSYM    DATA     BIT       P25
      00000090H.6 SFRSYM    DATA     BIT       P16
      00000080H.7 SFRSYM    DATA     BIT       P07
      000000F8H.1 SFRSYM    DATA     BIT       P71
      000000E8H.2 SFRSYM    DATA     BIT       P62
      000000C8H.3 SFRSYM    DATA     BIT       P53
      000000C0H.4 SFRSYM    DATA     BIT       P44
      000000B0H.5 SFRSYM    DATA     BIT       P35
      000000A0H.6 SFRSYM    DATA     BIT       P26
      00000090H.7 SFRSYM    DATA     BIT       P17
      000000F8H.2 SFRSYM    DATA     BIT       P72
      000000E8H.3 SFRSYM    DATA     BIT       P63
      000000C8H.4 SFRSYM    DATA     BIT       P54
      000000C0H.5 SFRSYM    DATA     BIT       P45
      000000B0H.6 SFRSYM    DATA     BIT       P36
      000000A0H.7 SFRSYM    DATA     BIT       P27
      000000F8H.3 SFRSYM    DATA     BIT       P73
      000000E8H.4 SFRSYM    DATA     BIT       P64
      000000C8H.5 SFRSYM    DATA     BIT       P55
      000000C0H.6 SFRSYM    DATA     BIT       P46
      000000B0H.7 SFRSYM    DATA     BIT       P37
      000000F8H.4 SFRSYM    DATA     BIT       P74
      000000E8H.5 SFRSYM    DATA     BIT       P65
LX51 LINKER/LOCATER V4.66.93.0                                                        12/24/2024  17:25:26  PAGE 44


      000000C8H.6 SFRSYM    DATA     BIT       P56
      000000C0H.7 SFRSYM    DATA     BIT       P47
      000000F8H.5 SFRSYM    DATA     BIT       P75
      000000E8H.6 SFRSYM    DATA     BIT       P66
      000000C8H.7 SFRSYM    DATA     BIT       P57
      000000F8H.6 SFRSYM    DATA     BIT       P76
      000000E8H.7 SFRSYM    DATA     BIT       P67
      000000F8H.7 SFRSYM    DATA     BIT       P77
      000000A1H   SFRSYM    DATA     BYTE      BUS_SPEED
      00000088H.1 SFRSYM    DATA     BIT       IE0
      00000088H.3 SFRSYM    DATA     BIT       IE1
      000000AFH   SFRSYM    DATA     BYTE      IE2
      000000F0H   SFRSYM    DATA     BYTE      B
      0000008EH   SFRSYM    DATA     BYTE      AUXR
      000000FCH   SFRSYM    DATA     BYTE      USBADR
      000000C7H   SFRSYM    DATA     BYTE      IAP_CONTR
      000000ECH   SFRSYM    DATA     BYTE      USBDAT
      000000DCH   SFRSYM    DATA     BYTE      USBCLK
      000000E0H   SFRSYM    DATA     BYTE      ACC
      000000A8H.1 SFRSYM    DATA     BIT       ET0
      000000A8H.3 SFRSYM    DATA     BIT       ET1
      00000088H.5 SFRSYM    DATA     BIT       TF0
      000000FFH   SFRSYM    DATA     BYTE      RSTCFG
      000000B5H   SFRSYM    DATA     BYTE      IP2
      00000088H.7 SFRSYM    DATA     BIT       TF1
      000000F4H   SFRSYM    DATA     BYTE      USBCON
      000000DFH   SFRSYM    DATA     BYTE      IP3
      00000098H.2 SFRSYM    DATA     BIT       RB8
      0000008CH   SFRSYM    DATA     BYTE      TH0
      000000A8H.0 SFRSYM    DATA     BIT       EX0
      0000008DH   SFRSYM    DATA     BYTE      TH1
      00000088H.0 SFRSYM    DATA     BIT       IT0
      000000D6H   SFRSYM    DATA     BYTE      TH2
      000000D6H   SFRSYM    DATA     BYTE      T2H
      000000A8H.2 SFRSYM    DATA     BIT       EX1
      00000098H.3 SFRSYM    DATA     BIT       TB8
      00000088H.2 SFRSYM    DATA     BIT       IT1
      000000D4H   SFRSYM    DATA     BYTE      TH3
      000000D4H   SFRSYM    DATA     BYTE      T3H
      000000D0H.0 SFRSYM    DATA     BIT       P
      000000D2H   SFRSYM    DATA     BYTE      TH4
      000000D2H   SFRSYM    DATA     BYTE      T4H
      00000098H.7 SFRSYM    DATA     BIT       SM0
      0000008AH   SFRSYM    DATA     BYTE      TL0
      00000098H.6 SFRSYM    DATA     BIT       SM1
      0000008BH   SFRSYM    DATA     BYTE      TL1
      000000D7H   SFRSYM    DATA     BYTE      TL2
      000000D7H   SFRSYM    DATA     BYTE      T2L
      00000098H.5 SFRSYM    DATA     BIT       SM2
      000000D5H   SFRSYM    DATA     BYTE      TL3
      000000D5H   SFRSYM    DATA     BYTE      T3L
      000000D3H   SFRSYM    DATA     BYTE      TL4
      000000D3H   SFRSYM    DATA     BYTE      T4L
      000000B8H.1 SFRSYM    DATA     BIT       PT0
      000000D0H.3 SFRSYM    DATA     BIT       RS0
      000000B8H.3 SFRSYM    DATA     BIT       PT1
      000000D0H.4 SFRSYM    DATA     BIT       RS1
      000000C2H   SFRSYM    DATA     BYTE      IAP_DATA
      00000088H.4 SFRSYM    DATA     BIT       TR0
      00000088H.6 SFRSYM    DATA     BIT       TR1
      000000C1H   SFRSYM    DATA     BYTE      WDT_CONTR
      000000B8H.0 SFRSYM    DATA     BIT       PX0
      000000B8H.2 SFRSYM    DATA     BIT       PX1
      0000009FH   SFRSYM    DATA     BYTE      IRTRIM
      00000083H   SFRSYM    DATA     BYTE      DPH
LX51 LINKER/LOCATER V4.66.93.0                                                        12/24/2024  17:25:26  PAGE 45


      000000D1H   SFRSYM    DATA     BYTE      T3T4M
      000000D1H   SFRSYM    DATA     BYTE      T4T3M
      000000BEH   SFRSYM    DATA     BYTE      ADC_RESL
      00000082H   SFRSYM    DATA     BYTE      DPL
      000000CDH   SFRSYM    DATA     BYTE      SPSTAT
      000000B7H   SFRSYM    DATA     BYTE      IPH
      000000EDH   SFRSYM    DATA     BYTE      MDU32CR
      0000009BH   SFRSYM    DATA     BYTE      S2BUF
      000000ADH   SFRSYM    DATA     BYTE      S3BUF
      00000098H.4 SFRSYM    DATA     BIT       REN
      00000085H   SFRSYM    DATA     BYTE      S4BUF
      000000A6H   SFRSYM    DATA     BYTE      VRTRIM
      0000009AH   SFRSYM    DATA     BYTE      S2CON
      000000E3H   SFRSYM    DATA     BYTE      DPS
      000000ACH   SFRSYM    DATA     BYTE      S3CON
      00000084H   SFRSYM    DATA     BYTE      S4CON
      000000EFH   SFRSYM    DATA     BYTE      AUXINTIF
      000000B9H   SFRSYM    DATA     BYTE      SADEN
      000000B0H.0 SFRSYM    DATA     BIT       RXD
      000000A9H   SFRSYM    DATA     BYTE      SADDR
      000000B0H.1 SFRSYM    DATA     BIT       TXD
      000000DDH   SFRSYM    DATA     BYTE      MDU32SR
      000000C6H   SFRSYM    DATA     BYTE      IAP_TRIG
      000000D0H.5 SFRSYM    DATA     BIT       F0
      0000009DH   SFRSYM    DATA     BYTE      IRCBAND
      000000D0H.1 SFRSYM    DATA     BIT       F1
      000000D0H   SFRSYM    DATA     BYTE      PSW
      000000CFH   SFRSYM    DATA     BYTE      SPDAT
      00000094H   SFRSYM    DATA     BYTE      P0M0

      01002248H   BLOCK     CODE     ---       LVL=0
      01002248H   LINE      CODE     ---       #7
      0100225FH   LINE      CODE     ---       #9
      0100227EH   LINE      CODE     ---       #10
      ---         BLOCKEND  ---      ---       LVL=0

      010027EBH   BLOCK     CODE     ---       LVL=0
      010027EBH   LINE      CODE     ---       #13
      010027EBH   LINE      CODE     ---       #14
      010027EBH   LINE      CODE     ---       #15
      010027EEH   LINE      CODE     ---       #16
      010027F1H   LINE      CODE     ---       #17
      010027F4H   LINE      CODE     ---       #18
      010027F7H   LINE      CODE     ---       #19
      010027F9H   LINE      CODE     ---       #20
      010027FBH   LINE      CODE     ---       #21
      010027FDH   LINE      CODE     ---       #22
      ---         BLOCKEND  ---      ---       LVL=0

      010027FEH   BLOCK     CODE     ---       LVL=0
      010027FEH   LINE      CODE     ---       #25
      010027FEH   LINE      CODE     ---       #26
      010027FEH   LINE      CODE     ---       #27
      0100280CH   LINE      CODE     ---       #28
      ---         BLOCKEND  ---      ---       LVL=0

      0100241FH   BLOCK     CODE     ---       LVL=0
      00000006H   SYMBOL    DATA     WORD      tk
      0100241FH   BLOCK     CODE     NEAR LAB  LVL=1
      020001A1H   SYMBOL    XDATA    DWORD     t
      ---         BLOCKEND  ---      ---       LVL=1
      0100241FH   LINE      CODE     ---       #31
      0100241FH   LINE      CODE     ---       #32
      0100241FH   LINE      CODE     ---       #34
      01002440H   LINE      CODE     ---       #35
LX51 LINKER/LOCATER V4.66.93.0                                                        12/24/2024  17:25:26  PAGE 46


      01002457H   LINE      CODE     ---       #36
      01002457H   LINE      CODE     ---       #37
      01002457H   LINE      CODE     ---       #38
      ---         BLOCKEND  ---      ---       LVL=0

      ---         MODULE    ---      ---       USB
      020000D2H   PUBLIC    XDATA    BYTE      OutEpState
      020000D1H   PUBLIC    XDATA    BYTE      InEpState
      00000023H.1 PUBLIC    BIT      BIT       bUsbInBusy
      020000CBH   PUBLIC    XDATA    ---       Ep0State
      0200008BH   PUBLIC    XDATA    ---       UsbFeatureBuffer
      0200008AH   PUBLIC    XDATA    BYTE      DeviceState
      00000023H.0 PUBLIC    BIT      BIT       bUsbFeatureReady
      0200004AH   PUBLIC    XDATA    ---       UsbOutBuffer
      0200000AH   PUBLIC    XDATA    ---       UsbInBuffer
      00000022H.7 PUBLIC    BIT      BIT       bUsbOutReady
      02000008H   PUBLIC    XDATA    BYTE      OutNumber
      02000000H   PUBLIC    XDATA    ---       Setup
      01001975H   PUBLIC    CODE     ---       _USB_SendData
      01001B4EH   PUBLIC    CODE     ---       _usb_IN
      010015A8H   PUBLIC    CODE     ---       usb_out_ep1
      010026EAH   PUBLIC    CODE     ---       usb_in_ep2
      010026ABH   PUBLIC    CODE     ---       usb_in_ep1
      02000212H   PUBLIC    XDATA    BYTE      ?_usb_bulk_intr_in?BYTE
      0100232DH   PUBLIC    CODE     ---       _usb_bulk_intr_in
      010021F9H   PUBLIC    CODE     ---       usb_ctrl_out
      01001EECH   PUBLIC    CODE     ---       usb_ctrl_in
      01002835H   PUBLIC    CODE     ---       usb_setup_status
      01002828H   PUBLIC    CODE     ---       usb_setup_out
      010000B2H   PUBLIC    CODE     ---       usb_setup_in
      0100281BH   PUBLIC    CODE     ---       usb_setup_stall
      01001E74H   PUBLIC    CODE     ---       usb_setup
      010000C9H   PUBLIC    CODE     ---       usb_suspend
      010023A8H   PUBLIC    CODE     ---       usb_reset
      010000C2H   PUBLIC    CODE     ---       usb_resume
      0100000EH   PUBLIC    CODE     ---       usb_isr
      02000203H   PUBLIC    XDATA    BYTE      ?_usb_write_fifo?BYTE
      010024C4H   PUBLIC    CODE     ---       _usb_write_fifo
      010023E5H   PUBLIC    CODE     ---       _usb_read_fifo
      01002715H   PUBLIC    CODE     ---       _usb_write_reg
      01002765H   PUBLIC    CODE     ---       _usb_read_reg
      01001FCAH   PUBLIC    CODE     ---       usb_init

      01001FCAH   BLOCK     CODE     ---       LVL=0
      ---         BLOCKEND  ---      ---       LVL=0

      0100275CH   BLOCK     CODE     ---       LVL=0
      ---         BLOCKEND  ---      ---       LVL=0

      01002765H   BLOCK     CODE     ---       LVL=0
      01002765H   BLOCK     CODE     NEAR LAB  LVL=1
      00000007H   SYMBOL    DATA     VOID      dat
      ---         BLOCKEND  ---      ---       LVL=1
      ---         BLOCKEND  ---      ---       LVL=0

      01002708H   BLOCK     CODE     ---       LVL=0
      ---         BLOCKEND  ---      ---       LVL=0

      01002715H   BLOCK     CODE     ---       LVL=0
      ---         BLOCKEND  ---      ---       LVL=0

      010023E5H   BLOCK     CODE     ---       LVL=0
      010023F2H   BLOCK     CODE     NEAR LAB  LVL=1
      00000005H   SYMBOL    DATA     VOID      cnt
      00000004H   SYMBOL    DATA     VOID      ret
LX51 LINKER/LOCATER V4.66.93.0                                                        12/24/2024  17:25:26  PAGE 47


      ---         BLOCKEND  ---      ---       LVL=1
      ---         BLOCKEND  ---      ---       LVL=0

      010024C4H   BLOCK     CODE     ---       LVL=0
      ---         BLOCKEND  ---      ---       LVL=0

      0100000EH   BLOCK     CODE     ---       LVL=0
      0100002BH   BLOCK     CODE     NEAR LAB  LVL=1
      020001FDH   SYMBOL    XDATA    VOID      intrusb
      020001FEH   SYMBOL    XDATA    VOID      intrin
      020001FFH   SYMBOL    XDATA    VOID      introut
      02000200H   SYMBOL    XDATA    VOID      adrTemp
      ---         BLOCKEND  ---      ---       LVL=1
      ---         BLOCKEND  ---      ---       LVL=0

      010000C2H   BLOCK     CODE     ---       LVL=0
      ---         BLOCKEND  ---      ---       LVL=0

      010023A8H   BLOCK     CODE     ---       LVL=0
      ---         BLOCKEND  ---      ---       LVL=0

      010000C9H   BLOCK     CODE     ---       LVL=0
      ---         BLOCKEND  ---      ---       LVL=0

      01001E74H   BLOCK     CODE     ---       LVL=0
      01001E74H   BLOCK     CODE     NEAR LAB  LVL=1
      00000006H   SYMBOL    DATA     VOID      csr
      ---         BLOCKEND  ---      ---       LVL=1
      ---         BLOCKEND  ---      ---       LVL=0

      0100281BH   BLOCK     CODE     ---       LVL=0
      ---         BLOCKEND  ---      ---       LVL=0

      010000B2H   BLOCK     CODE     ---       LVL=0
      ---         BLOCKEND  ---      ---       LVL=0

      01002828H   BLOCK     CODE     ---       LVL=0
      ---         BLOCKEND  ---      ---       LVL=0

      01002835H   BLOCK     CODE     ---       LVL=0
      ---         BLOCKEND  ---      ---       LVL=0

      01001EECH   BLOCK     CODE     ---       LVL=0
      01001EECH   BLOCK     CODE     NEAR LAB  LVL=1
      00000007H   SYMBOL    DATA     VOID      csr
      02000202H   SYMBOL    XDATA    VOID      cnt
      ---         BLOCKEND  ---      ---       LVL=1
      ---         BLOCKEND  ---      ---       LVL=0

      010021F9H   BLOCK     CODE     ---       LVL=0
      010021F9H   BLOCK     CODE     NEAR LAB  LVL=1
      00000007H   SYMBOL    DATA     VOID      csr
      00000007H   SYMBOL    DATA     VOID      cnt
      ---         BLOCKEND  ---      ---       LVL=1
      ---         BLOCKEND  ---      ---       LVL=0

      01002325H   BLOCK     CODE     ---       LVL=0
      ---         BLOCKEND  ---      ---       LVL=0

      0100232DH   BLOCK     CODE     ---       LVL=0
      ---         BLOCKEND  ---      ---       LVL=0
      00000006H   SYMBOL    DATA     VOID      cnt

      010026ABH   BLOCK     CODE     ---       LVL=0
      010026ABH   BLOCK     CODE     NEAR LAB  LVL=1
LX51 LINKER/LOCATER V4.66.93.0                                                        12/24/2024  17:25:26  PAGE 48


      00000006H   SYMBOL    DATA     VOID      csr
      ---         BLOCKEND  ---      ---       LVL=1
      ---         BLOCKEND  ---      ---       LVL=0

      010026EAH   BLOCK     CODE     ---       LVL=0
      010026EAH   BLOCK     CODE     NEAR LAB  LVL=1
      00000006H   SYMBOL    DATA     VOID      csr
      ---         BLOCKEND  ---      ---       LVL=1
      ---         BLOCKEND  ---      ---       LVL=0

      010015A8H   BLOCK     CODE     ---       LVL=0
      010015A8H   BLOCK     CODE     NEAR LAB  LVL=1
      00000006H   SYMBOL    DATA     VOID      csr
      02000201H   SYMBOL    XDATA    VOID      cnt
      ---         BLOCKEND  ---      ---       LVL=1
      ---         BLOCKEND  ---      ---       LVL=0

      01001B4EH   BLOCK     CODE     ---       LVL=0
      01001B56H   BLOCK     CODE     NEAR LAB  LVL=1
      020001C9H   SYMBOL    XDATA    VOID      cnt
      020001CAH   SYMBOL    XDATA    VOID      addr
      020001CCH   SYMBOL    XDATA    VOID      timeout
      ---         BLOCKEND  ---      ---       LVL=1
      ---         BLOCKEND  ---      ---       LVL=0

      01001975H   BLOCK     CODE     ---       LVL=0
      01001986H   BLOCK     CODE     NEAR LAB  LVL=1
      0200020DH   SYMBOL    XDATA    VOID      cnt
      0200020EH   SYMBOL    XDATA    VOID      addr
      02000210H   SYMBOL    XDATA    VOID      timeout
      ---         BLOCKEND  ---      ---       LVL=1
      ---         BLOCKEND  ---      ---       LVL=0

      ---         MODULE    ---      ---       UTIL
      02000197H   PUBLIC    XDATA    BYTE      ?_printf_usb?BYTE
      01002035H   PUBLIC    CODE     ---       _printf_usb
      010027A9H   PUBLIC    CODE     ---       _sleep_ms
      010026CBH   PUBLIC    CODE     ---       _sleep_us
      01002724H   PUBLIC    CODE     ---       _reverse2

      01002724H   BLOCK     CODE     ---       LVL=0
      0100272CH   BLOCK     CODE     NEAR LAB  LVL=1
      02000203H   SYMBOL    XDATA    VOID      ret
      ---         BLOCKEND  ---      ---       LVL=1
      ---         BLOCKEND  ---      ---       LVL=0

      010026CBH   BLOCK     CODE     ---       LVL=0
      ---         BLOCKEND  ---      ---       LVL=0

      010027A9H   BLOCK     CODE     ---       LVL=0
      ---         BLOCKEND  ---      ---       LVL=0

      01002035H   BLOCK     CODE     ---       LVL=0
      01002040H   BLOCK     CODE     NEAR LAB  LVL=1
      0200019AH   SYMBOL    XDATA    VOID      ellipsis_40
      020001C2H   SYMBOL    XDATA    VOID      va
      020001C5H   SYMBOL    XDATA    VOID      ret
      ---         BLOCKEND  ---      ---       LVL=1
      ---         BLOCKEND  ---      ---       LVL=0

      ---         MODULE    ---      ---       USB_REQ_CLASS
      02000238H   PUBLIC    XDATA    ---       LineCoding
      010027C1H   PUBLIC    CODE     ---       usb_set_ctrl_line_state
      0100252AH   PUBLIC    CODE     ---       usb_get_line_coding
      010024F7H   PUBLIC    CODE     ---       usb_set_line_coding
LX51 LINKER/LOCATER V4.66.93.0                                                        12/24/2024  17:25:26  PAGE 49


      01002740H   PUBLIC    CODE     ---       usb_req_class

      01002740H   BLOCK     CODE     ---       LVL=0
      ---         BLOCKEND  ---      ---       LVL=0

      010024F7H   BLOCK     CODE     ---       LVL=0
      ---         BLOCKEND  ---      ---       LVL=0

      0100252AH   BLOCK     CODE     ---       LVL=0
      ---         BLOCKEND  ---      ---       LVL=0

      010027C1H   BLOCK     CODE     ---       LVL=0
      ---         BLOCKEND  ---      ---       LVL=0

      ---         MODULE    ---      ---       USB_REQ_STD
      010000C6H   PUBLIC    CODE     ---       usb_synch_frame
      01002612H   PUBLIC    CODE     ---       usb_set_interface
      01002367H   PUBLIC    CODE     ---       usb_get_interface
      01001AB1H   PUBLIC    CODE     ---       usb_set_configuration
      010020F1H   PUBLIC    CODE     ---       usb_get_configuration
      01000008H   PUBLIC    CODE     ---       usb_set_descriptor
      0100176BH   PUBLIC    CODE     ---       usb_get_descriptor
      010021A8H   PUBLIC    CODE     ---       usb_set_address
      01001A13H   PUBLIC    CODE     ---       usb_set_feature
      010018D5H   PUBLIC    CODE     ---       usb_clear_feature
      01001491H   PUBLIC    CODE     ---       usb_get_status
      01002095H   PUBLIC    CODE     ---       usb_req_std

      01002095H   BLOCK     CODE     ---       LVL=0
      ---         BLOCKEND  ---      ---       LVL=0

      01001491H   BLOCK     CODE     ---       LVL=0
      01001491H   BLOCK     CODE     NEAR LAB  LVL=1
      02000201H   SYMBOL    XDATA    VOID      ep
      ---         BLOCKEND  ---      ---       LVL=1
      ---         BLOCKEND  ---      ---       LVL=0

      010018D5H   BLOCK     CODE     ---       LVL=0
      010018D5H   BLOCK     CODE     NEAR LAB  LVL=1
      02000201H   SYMBOL    XDATA    VOID      ep
      ---         BLOCKEND  ---      ---       LVL=1
      ---         BLOCKEND  ---      ---       LVL=0

      01001A13H   BLOCK     CODE     ---       LVL=0
      01001A13H   BLOCK     CODE     NEAR LAB  LVL=1
      02000201H   SYMBOL    XDATA    VOID      ep
      ---         BLOCKEND  ---      ---       LVL=1
      ---         BLOCKEND  ---      ---       LVL=0

      010021A8H   BLOCK     CODE     ---       LVL=0
      010021A8H   BLOCK     CODE     NEAR LAB  LVL=1
      02000201H   SYMBOL    XDATA    VOID      addr
      ---         BLOCKEND  ---      ---       LVL=1
      ---         BLOCKEND  ---      ---       LVL=0

      0100176BH   BLOCK     CODE     ---       LVL=0
      ---         BLOCKEND  ---      ---       LVL=0

      01000008H   BLOCK     CODE     ---       LVL=0
      ---         BLOCKEND  ---      ---       LVL=0

      010020F1H   BLOCK     CODE     ---       LVL=0
      ---         BLOCKEND  ---      ---       LVL=0

      01001AB1H   BLOCK     CODE     ---       LVL=0
LX51 LINKER/LOCATER V4.66.93.0                                                        12/24/2024  17:25:26  PAGE 50


      ---         BLOCKEND  ---      ---       LVL=0

      01002367H   BLOCK     CODE     ---       LVL=0
      ---         BLOCKEND  ---      ---       LVL=0

      01002612H   BLOCK     CODE     ---       LVL=0
      ---         BLOCKEND  ---      ---       LVL=0

      010000C6H   BLOCK     CODE     ---       LVL=0
      ---         BLOCKEND  ---      ---       LVL=0

      ---         MODULE    ---      ---       USB_REQ_VENDOR
      01002841H   PUBLIC    CODE     ---       usb_req_vendor

      01002841H   BLOCK     CODE     ---       LVL=0
      ---         BLOCKEND  ---      ---       LVL=0

      ---         MODULE    ---      ---       USB_DESC
      0100299EH   PUBLIC    CONST    ---       PACKET1
      0100299CH   PUBLIC    CONST    ---       PACKET0
      0100297EH   PUBLIC    CONST    ---       PRODUCTDESC
      01002976H   PUBLIC    CONST    ---       MANUFACTDESC
      01002972H   PUBLIC    CONST    ---       LANGIDDESC
      0100292FH   PUBLIC    CONST    ---       CONFIGDESC
      0100291DH   PUBLIC    CONST    ---       DEVICEDESC

      ---         MODULE    ---      ---       I2C
      0100280DH   PUBLIC    CODE     ---       I2C_Init
      000000DCH   SFRSYM    DATA     BYTE      PLLCR
      00000093H   SFRSYM    DATA     BYTE      P0M1
      00000092H   SFRSYM    DATA     BYTE      P1M0
      00000096H   SFRSYM    DATA     BYTE      P2M0
      00000091H   SFRSYM    DATA     BYTE      P1M1
      00000080H   SFRSYM    DATA     BYTE      P0
      000000B2H   SFRSYM    DATA     BYTE      P3M0
      00000095H   SFRSYM    DATA     BYTE      P2M1
      00000090H   SFRSYM    DATA     BYTE      P1
      000000B4H   SFRSYM    DATA     BYTE      P4M0
      000000B1H   SFRSYM    DATA     BYTE      P3M1
      000000A0H   SFRSYM    DATA     BYTE      P2
      000000CAH   SFRSYM    DATA     BYTE      P5M0
      000000B3H   SFRSYM    DATA     BYTE      P4M1
      000000B0H   SFRSYM    DATA     BYTE      P3
      000000ABH   SFRSYM    DATA     BYTE      WKTCH
      000000D0H.6 SFRSYM    DATA     BIT       AC
      000000CCH   SFRSYM    DATA     BYTE      P6M0
      000000C9H   SFRSYM    DATA     BYTE      P5M1
      000000C0H   SFRSYM    DATA     BYTE      P4
      000000B0H.4 SFRSYM    DATA     BIT       T0
      000000E2H   SFRSYM    DATA     BYTE      P7M0
      000000CBH   SFRSYM    DATA     BYTE      P6M1
      000000C8H   SFRSYM    DATA     BYTE      P5
      000000B0H.5 SFRSYM    DATA     BIT       T1
      000000E8H   SFRSYM    DATA     BYTE      P6
      000000E1H   SFRSYM    DATA     BYTE      P7M1
      000000A8H.7 SFRSYM    DATA     BIT       EA
      000000F8H   SFRSYM    DATA     BYTE      P7
      000000AAH   SFRSYM    DATA     BYTE      WKTCL
      000000CEH   SFRSYM    DATA     BYTE      SPCTL
      000000A2H   SFRSYM    DATA     BYTE      P_SW1
      000000BAH   SFRSYM    DATA     BYTE      P_SW2
      000000E5H   SFRSYM    DATA     BYTE      DPH1
      000000A8H.5 SFRSYM    DATA     BIT       EADC
      000000A8H   SFRSYM    DATA     BYTE      IE
      000000C5H   SFRSYM    DATA     BYTE      IAP_CMD
LX51 LINKER/LOCATER V4.66.93.0                                                        12/24/2024  17:25:26  PAGE 51


      000000E4H   SFRSYM    DATA     BYTE      DPL1
      000000BDH   SFRSYM    DATA     BYTE      ADC_RES
      000000B6H   SFRSYM    DATA     BYTE      IP2H
      000000EEH   SFRSYM    DATA     BYTE      IP3H
      000000AEH   SFRSYM    DATA     BYTE      TA
      000000B0H.7 SFRSYM    DATA     BIT       RD
      0000008FH   SFRSYM    DATA     BYTE      INTCLKO
      000000A8H.4 SFRSYM    DATA     BIT       ES
      000000B8H.5 SFRSYM    DATA     BIT       PADC
      000000B8H   SFRSYM    DATA     BYTE      IP
      000000DEH   SFRSYM    DATA     BYTE      ADCCFG
      00000098H.0 SFRSYM    DATA     BIT       RI
      000000D0H.7 SFRSYM    DATA     BIT       CY
      000000B0H.2 SFRSYM    DATA     BIT       INT0
      000000B0H.3 SFRSYM    DATA     BIT       INT1
      00000098H.1 SFRSYM    DATA     BIT       TI
      000000C3H   SFRSYM    DATA     BYTE      IAP_ADDRH
      000000B8H.4 SFRSYM    DATA     BIT       PS
      00000081H   SFRSYM    DATA     BYTE      SP
      000000C4H   SFRSYM    DATA     BYTE      IAP_ADDRL
      000000D0H.2 SFRSYM    DATA     BIT       OV
      0000009EH   SFRSYM    DATA     BYTE      LIRTRIM
      000000E6H   SFRSYM    DATA     BYTE      CMPCR1
      000000E7H   SFRSYM    DATA     BYTE      CMPCR2
      000000B0H.6 SFRSYM    DATA     BIT       WR
      000000A8H.6 SFRSYM    DATA     BIT       ELVD
      00000080H.0 SFRSYM    DATA     BIT       P00
      000000BCH   SFRSYM    DATA     BYTE      ADC_CONTR
      00000099H   SFRSYM    DATA     BYTE      SBUF
      00000090H.0 SFRSYM    DATA     BIT       P10
      00000087H   SFRSYM    DATA     BYTE      PCON
      00000080H.1 SFRSYM    DATA     BIT       P01
      000000A0H.0 SFRSYM    DATA     BIT       P20
      00000090H.1 SFRSYM    DATA     BIT       P11
      00000080H.2 SFRSYM    DATA     BIT       P02
      000000F5H   SFRSYM    DATA     BYTE      IAP_TPS
      000000B0H.0 SFRSYM    DATA     BIT       P30
      000000A0H.1 SFRSYM    DATA     BIT       P21
      00000090H.2 SFRSYM    DATA     BIT       P12
      00000080H.3 SFRSYM    DATA     BIT       P03
      000000C0H.0 SFRSYM    DATA     BIT       P40
      000000B0H.1 SFRSYM    DATA     BIT       P31
      000000A0H.2 SFRSYM    DATA     BIT       P22
      00000098H   SFRSYM    DATA     BYTE      SCON
      00000090H.3 SFRSYM    DATA     BIT       P13
      00000080H.4 SFRSYM    DATA     BIT       P04
      000000C8H.0 SFRSYM    DATA     BIT       P50
      000000C0H.1 SFRSYM    DATA     BIT       P41
      000000B0H.2 SFRSYM    DATA     BIT       P32
      000000A0H.3 SFRSYM    DATA     BIT       P23
      00000090H.4 SFRSYM    DATA     BIT       P14
      00000089H   SFRSYM    DATA     BYTE      TMOD
      00000088H   SFRSYM    DATA     BYTE      TCON
      00000080H.5 SFRSYM    DATA     BIT       P05
      000000E8H.0 SFRSYM    DATA     BIT       P60
      000000C8H.1 SFRSYM    DATA     BIT       P51
      000000C0H.2 SFRSYM    DATA     BIT       P42
      000000B0H.3 SFRSYM    DATA     BIT       P33
      000000A0H.4 SFRSYM    DATA     BIT       P24
      00000090H.5 SFRSYM    DATA     BIT       P15
      00000080H.6 SFRSYM    DATA     BIT       P06
      000000F8H.0 SFRSYM    DATA     BIT       P70
      000000E8H.1 SFRSYM    DATA     BIT       P61
      000000C8H.2 SFRSYM    DATA     BIT       P52
      000000C0H.3 SFRSYM    DATA     BIT       P43
LX51 LINKER/LOCATER V4.66.93.0                                                        12/24/2024  17:25:26  PAGE 52


      000000B8H.6 SFRSYM    DATA     BIT       PLVD
      000000B0H.4 SFRSYM    DATA     BIT       P34
      000000A0H.5 SFRSYM    DATA     BIT       P25
      00000090H.6 SFRSYM    DATA     BIT       P16
      00000080H.7 SFRSYM    DATA     BIT       P07
      000000F8H.1 SFRSYM    DATA     BIT       P71
      000000E8H.2 SFRSYM    DATA     BIT       P62
      000000C8H.3 SFRSYM    DATA     BIT       P53
      000000C0H.4 SFRSYM    DATA     BIT       P44
      000000B0H.5 SFRSYM    DATA     BIT       P35
      000000A0H.6 SFRSYM    DATA     BIT       P26
      00000090H.7 SFRSYM    DATA     BIT       P17
      000000F8H.2 SFRSYM    DATA     BIT       P72
      000000E8H.3 SFRSYM    DATA     BIT       P63
      000000C8H.4 SFRSYM    DATA     BIT       P54
      000000C0H.5 SFRSYM    DATA     BIT       P45
      000000B0H.6 SFRSYM    DATA     BIT       P36
      000000A0H.7 SFRSYM    DATA     BIT       P27
      000000F8H.3 SFRSYM    DATA     BIT       P73
      000000E8H.4 SFRSYM    DATA     BIT       P64
      000000C8H.5 SFRSYM    DATA     BIT       P55
      000000C0H.6 SFRSYM    DATA     BIT       P46
      000000B0H.7 SFRSYM    DATA     BIT       P37
      000000F8H.4 SFRSYM    DATA     BIT       P74
      000000E8H.5 SFRSYM    DATA     BIT       P65
      000000C8H.6 SFRSYM    DATA     BIT       P56
      000000C0H.7 SFRSYM    DATA     BIT       P47
      000000F8H.5 SFRSYM    DATA     BIT       P75
      000000E8H.6 SFRSYM    DATA     BIT       P66
      000000C8H.7 SFRSYM    DATA     BIT       P57
      000000F8H.6 SFRSYM    DATA     BIT       P76
      000000E8H.7 SFRSYM    DATA     BIT       P67
      000000F8H.7 SFRSYM    DATA     BIT       P77
      000000A1H   SFRSYM    DATA     BYTE      BUS_SPEED
      00000088H.1 SFRSYM    DATA     BIT       IE0
      00000088H.3 SFRSYM    DATA     BIT       IE1
      000000AFH   SFRSYM    DATA     BYTE      IE2
      000000F0H   SFRSYM    DATA     BYTE      B
      0000008EH   SFRSYM    DATA     BYTE      AUXR
      000000FCH   SFRSYM    DATA     BYTE      USBADR
      000000C7H   SFRSYM    DATA     BYTE      IAP_CONTR
      000000ECH   SFRSYM    DATA     BYTE      USBDAT
      000000DCH   SFRSYM    DATA     BYTE      USBCLK
      000000E0H   SFRSYM    DATA     BYTE      ACC
      000000A8H.1 SFRSYM    DATA     BIT       ET0
      000000A8H.3 SFRSYM    DATA     BIT       ET1
      00000088H.5 SFRSYM    DATA     BIT       TF0
      000000FFH   SFRSYM    DATA     BYTE      RSTCFG
      000000B5H   SFRSYM    DATA     BYTE      IP2
      00000088H.7 SFRSYM    DATA     BIT       TF1
      000000F4H   SFRSYM    DATA     BYTE      USBCON
      000000DFH   SFRSYM    DATA     BYTE      IP3
      00000098H.2 SFRSYM    DATA     BIT       RB8
      0000008CH   SFRSYM    DATA     BYTE      TH0
      000000A8H.0 SFRSYM    DATA     BIT       EX0
      0000008DH   SFRSYM    DATA     BYTE      TH1
      00000088H.0 SFRSYM    DATA     BIT       IT0
      000000D6H   SFRSYM    DATA     BYTE      TH2
      000000D6H   SFRSYM    DATA     BYTE      T2H
      000000A8H.2 SFRSYM    DATA     BIT       EX1
      00000098H.3 SFRSYM    DATA     BIT       TB8
      00000088H.2 SFRSYM    DATA     BIT       IT1
      000000D4H   SFRSYM    DATA     BYTE      TH3
      000000D4H   SFRSYM    DATA     BYTE      T3H
      000000D0H.0 SFRSYM    DATA     BIT       P
LX51 LINKER/LOCATER V4.66.93.0                                                        12/24/2024  17:25:26  PAGE 53


      000000D2H   SFRSYM    DATA     BYTE      TH4
      000000D2H   SFRSYM    DATA     BYTE      T4H
      00000098H.7 SFRSYM    DATA     BIT       SM0
      0000008AH   SFRSYM    DATA     BYTE      TL0
      00000098H.6 SFRSYM    DATA     BIT       SM1
      0000008BH   SFRSYM    DATA     BYTE      TL1
      000000D7H   SFRSYM    DATA     BYTE      TL2
      000000D7H   SFRSYM    DATA     BYTE      T2L
      00000098H.5 SFRSYM    DATA     BIT       SM2
      000000D5H   SFRSYM    DATA     BYTE      TL3
      000000D5H   SFRSYM    DATA     BYTE      T3L
      000000D3H   SFRSYM    DATA     BYTE      TL4
      000000D3H   SFRSYM    DATA     BYTE      T4L
      000000B8H.1 SFRSYM    DATA     BIT       PT0
      000000D0H.3 SFRSYM    DATA     BIT       RS0
      000000B8H.3 SFRSYM    DATA     BIT       PT1
      000000D0H.4 SFRSYM    DATA     BIT       RS1
      000000C2H   SFRSYM    DATA     BYTE      IAP_DATA
      00000088H.4 SFRSYM    DATA     BIT       TR0
      00000088H.6 SFRSYM    DATA     BIT       TR1
      00000090H.4 SFRSYM    DATA     BIT       SDA
      000000C1H   SFRSYM    DATA     BYTE      WDT_CONTR
      000000B8H.0 SFRSYM    DATA     BIT       PX0
      000000B8H.2 SFRSYM    DATA     BIT       PX1
      0000009FH   SFRSYM    DATA     BYTE      IRTRIM
      00000083H   SFRSYM    DATA     BYTE      DPH
      000000D1H   SFRSYM    DATA     BYTE      T3T4M
      000000D1H   SFRSYM    DATA     BYTE      T4T3M
      000000BEH   SFRSYM    DATA     BYTE      ADC_RESL
      00000082H   SFRSYM    DATA     BYTE      DPL
      000000CDH   SFRSYM    DATA     BYTE      SPSTAT
      000000B7H   SFRSYM    DATA     BYTE      IPH
      00000090H.5 SFRSYM    DATA     BIT       SCL
      000000EDH   SFRSYM    DATA     BYTE      MDU32CR
      0000009BH   SFRSYM    DATA     BYTE      S2BUF
      000000ADH   SFRSYM    DATA     BYTE      S3BUF
      00000098H.4 SFRSYM    DATA     BIT       REN
      00000085H   SFRSYM    DATA     BYTE      S4BUF
      000000A6H   SFRSYM    DATA     BYTE      VRTRIM
      0000009AH   SFRSYM    DATA     BYTE      S2CON
      000000E3H   SFRSYM    DATA     BYTE      DPS
      000000ACH   SFRSYM    DATA     BYTE      S3CON
      00000084H   SFRSYM    DATA     BYTE      S4CON
      000000EFH   SFRSYM    DATA     BYTE      AUXINTIF
      000000B9H   SFRSYM    DATA     BYTE      SADEN
      000000B0H.0 SFRSYM    DATA     BIT       RXD
      000000A9H   SFRSYM    DATA     BYTE      SADDR
      000000B0H.1 SFRSYM    DATA     BIT       TXD
      000000DDH   SFRSYM    DATA     BYTE      MDU32SR
      000000C6H   SFRSYM    DATA     BYTE      IAP_TRIG
      000000D0H.5 SFRSYM    DATA     BIT       F0
      0000009DH   SFRSYM    DATA     BYTE      IRCBAND
      000000D0H.1 SFRSYM    DATA     BIT       F1
      000000D0H   SFRSYM    DATA     BYTE      PSW
      000000CFH   SFRSYM    DATA     BYTE      SPDAT
      00000094H   SFRSYM    DATA     BYTE      P0M0
      00000023H.4 SYMBOL    BIT      BIT       busy
      00000007H   SYMBOL    DATA     BYTE      dat

      0100280DH   BLOCK     CODE     ---       LVL=0
      0100280DH   LINE      CODE     ---       #101
      0100280DH   LINE      CODE     ---       #102
      0100280DH   LINE      CODE     ---       #103
      01002813H   LINE      CODE     ---       #104
      01002818H   LINE      CODE     ---       #105
LX51 LINKER/LOCATER V4.66.93.0                                                        12/24/2024  17:25:26  PAGE 54


      0100281AH   LINE      CODE     ---       #106
      ---         BLOCKEND  ---      ---       LVL=0

      ---         MODULE    ---      ---       KEY_DETECT
      0100263BH   PUBLIC    CODE     ---       _keyScan
      000000DCH   SFRSYM    DATA     BYTE      PLLCR
      00000093H   SFRSYM    DATA     BYTE      P0M1
      00000092H   SFRSYM    DATA     BYTE      P1M0
      00000096H   SFRSYM    DATA     BYTE      P2M0
      00000091H   SFRSYM    DATA     BYTE      P1M1
      00000080H   SFRSYM    DATA     BYTE      P0
      000000B2H   SFRSYM    DATA     BYTE      P3M0
      00000095H   SFRSYM    DATA     BYTE      P2M1
      00000090H   SFRSYM    DATA     BYTE      P1
      000000B4H   SFRSYM    DATA     BYTE      P4M0
      000000B1H   SFRSYM    DATA     BYTE      P3M1
      000000A0H   SFRSYM    DATA     BYTE      P2
      000000CAH   SFRSYM    DATA     BYTE      P5M0
      000000B3H   SFRSYM    DATA     BYTE      P4M1
      000000B0H   SFRSYM    DATA     BYTE      P3
      000000ABH   SFRSYM    DATA     BYTE      WKTCH
      000000D0H.6 SFRSYM    DATA     BIT       AC
      000000CCH   SFRSYM    DATA     BYTE      P6M0
      000000C9H   SFRSYM    DATA     BYTE      P5M1
      000000C0H   SFRSYM    DATA     BYTE      P4
      000000B0H.4 SFRSYM    DATA     BIT       T0
      000000E2H   SFRSYM    DATA     BYTE      P7M0
      000000CBH   SFRSYM    DATA     BYTE      P6M1
      000000C8H   SFRSYM    DATA     BYTE      P5
      000000B0H.5 SFRSYM    DATA     BIT       T1
      000000E8H   SFRSYM    DATA     BYTE      P6
      000000E1H   SFRSYM    DATA     BYTE      P7M1
      000000A8H.7 SFRSYM    DATA     BIT       EA
      000000F8H   SFRSYM    DATA     BYTE      P7
      000000AAH   SFRSYM    DATA     BYTE      WKTCL
      000000CEH   SFRSYM    DATA     BYTE      SPCTL
      000000A2H   SFRSYM    DATA     BYTE      P_SW1
      000000BAH   SFRSYM    DATA     BYTE      P_SW2
      000000E5H   SFRSYM    DATA     BYTE      DPH1
      000000A8H.5 SFRSYM    DATA     BIT       EADC
      000000A8H   SFRSYM    DATA     BYTE      IE
      000000C5H   SFRSYM    DATA     BYTE      IAP_CMD
      000000E4H   SFRSYM    DATA     BYTE      DPL1
      000000BDH   SFRSYM    DATA     BYTE      ADC_RES
      000000B6H   SFRSYM    DATA     BYTE      IP2H
      000000EEH   SFRSYM    DATA     BYTE      IP3H
      000000AEH   SFRSYM    DATA     BYTE      TA
      000000B0H.7 SFRSYM    DATA     BIT       RD
      0000008FH   SFRSYM    DATA     BYTE      INTCLKO
      000000A8H.4 SFRSYM    DATA     BIT       ES
      000000B8H.5 SFRSYM    DATA     BIT       PADC
      000000B8H   SFRSYM    DATA     BYTE      IP
      000000DEH   SFRSYM    DATA     BYTE      ADCCFG
      00000098H.0 SFRSYM    DATA     BIT       RI
      000000D0H.7 SFRSYM    DATA     BIT       CY
      000000B0H.2 SFRSYM    DATA     BIT       INT0
      000000B0H.3 SFRSYM    DATA     BIT       INT1
      00000098H.1 SFRSYM    DATA     BIT       TI
      000000C3H   SFRSYM    DATA     BYTE      IAP_ADDRH
      000000B8H.4 SFRSYM    DATA     BIT       PS
      00000081H   SFRSYM    DATA     BYTE      SP
      000000C4H   SFRSYM    DATA     BYTE      IAP_ADDRL
      000000D0H.2 SFRSYM    DATA     BIT       OV
      0000009EH   SFRSYM    DATA     BYTE      LIRTRIM
      000000E6H   SFRSYM    DATA     BYTE      CMPCR1
LX51 LINKER/LOCATER V4.66.93.0                                                        12/24/2024  17:25:26  PAGE 55


      000000E7H   SFRSYM    DATA     BYTE      CMPCR2
      000000B0H.6 SFRSYM    DATA     BIT       WR
      000000A8H.6 SFRSYM    DATA     BIT       ELVD
      00000080H.0 SFRSYM    DATA     BIT       P00
      000000BCH   SFRSYM    DATA     BYTE      ADC_CONTR
      00000099H   SFRSYM    DATA     BYTE      SBUF
      00000090H.0 SFRSYM    DATA     BIT       P10
      00000087H   SFRSYM    DATA     BYTE      PCON
      00000080H.1 SFRSYM    DATA     BIT       P01
      000000A0H.0 SFRSYM    DATA     BIT       P20
      00000090H.1 SFRSYM    DATA     BIT       P11
      00000080H.2 SFRSYM    DATA     BIT       P02
      000000F5H   SFRSYM    DATA     BYTE      IAP_TPS
      000000B0H.0 SFRSYM    DATA     BIT       P30
      000000A0H.1 SFRSYM    DATA     BIT       P21
      00000090H.2 SFRSYM    DATA     BIT       P12
      00000080H.3 SFRSYM    DATA     BIT       P03
      000000C0H.0 SFRSYM    DATA     BIT       P40
      000000B0H.1 SFRSYM    DATA     BIT       P31
      000000A0H.2 SFRSYM    DATA     BIT       P22
      00000098H   SFRSYM    DATA     BYTE      SCON
      00000090H.3 SFRSYM    DATA     BIT       P13
      00000080H.4 SFRSYM    DATA     BIT       P04
      000000C8H.0 SFRSYM    DATA     BIT       P50
      000000C0H.1 SFRSYM    DATA     BIT       P41
      000000B0H.2 SFRSYM    DATA     BIT       P32
      000000A0H.3 SFRSYM    DATA     BIT       P23
      00000090H.4 SFRSYM    DATA     BIT       P14
      00000089H   SFRSYM    DATA     BYTE      TMOD
      00000088H   SFRSYM    DATA     BYTE      TCON
      00000080H.5 SFRSYM    DATA     BIT       P05
      000000E8H.0 SFRSYM    DATA     BIT       P60
      000000C8H.1 SFRSYM    DATA     BIT       P51
      000000C0H.2 SFRSYM    DATA     BIT       P42
      000000B0H.3 SFRSYM    DATA     BIT       P33
      000000A0H.4 SFRSYM    DATA     BIT       P24
      00000090H.5 SFRSYM    DATA     BIT       P15
      00000080H.6 SFRSYM    DATA     BIT       P06
      000000F8H.0 SFRSYM    DATA     BIT       P70
      000000E8H.1 SFRSYM    DATA     BIT       P61
      000000C8H.2 SFRSYM    DATA     BIT       P52
      000000C0H.3 SFRSYM    DATA     BIT       P43
      000000B8H.6 SFRSYM    DATA     BIT       PLVD
      000000B0H.4 SFRSYM    DATA     BIT       P34
      000000A0H.5 SFRSYM    DATA     BIT       P25
      00000090H.6 SFRSYM    DATA     BIT       P16
      00000080H.7 SFRSYM    DATA     BIT       P07
      000000F8H.1 SFRSYM    DATA     BIT       P71
      000000E8H.2 SFRSYM    DATA     BIT       P62
      000000C8H.3 SFRSYM    DATA     BIT       P53
      000000C0H.4 SFRSYM    DATA     BIT       P44
      000000B0H.5 SFRSYM    DATA     BIT       P35
      000000A0H.6 SFRSYM    DATA     BIT       P26
      00000090H.7 SFRSYM    DATA     BIT       P17
      000000F8H.2 SFRSYM    DATA     BIT       P72
      000000E8H.3 SFRSYM    DATA     BIT       P63
      000000C8H.4 SFRSYM    DATA     BIT       P54
      000000C0H.5 SFRSYM    DATA     BIT       P45
      000000B0H.6 SFRSYM    DATA     BIT       P36
      000000A0H.7 SFRSYM    DATA     BIT       P27
      000000F8H.3 SFRSYM    DATA     BIT       P73
      000000E8H.4 SFRSYM    DATA     BIT       P64
      000000C8H.5 SFRSYM    DATA     BIT       P55
      000000C0H.6 SFRSYM    DATA     BIT       P46
      000000B0H.7 SFRSYM    DATA     BIT       P37
LX51 LINKER/LOCATER V4.66.93.0                                                        12/24/2024  17:25:26  PAGE 56


      000000F8H.4 SFRSYM    DATA     BIT       P74
      000000E8H.5 SFRSYM    DATA     BIT       P65
      000000C8H.6 SFRSYM    DATA     BIT       P56
      000000C0H.7 SFRSYM    DATA     BIT       P47
      000000F8H.5 SFRSYM    DATA     BIT       P75
      000000E8H.6 SFRSYM    DATA     BIT       P66
      000000C8H.7 SFRSYM    DATA     BIT       P57
      000000F8H.6 SFRSYM    DATA     BIT       P76
      000000E8H.7 SFRSYM    DATA     BIT       P67
      000000F8H.7 SFRSYM    DATA     BIT       P77
      000000A1H   SFRSYM    DATA     BYTE      BUS_SPEED
      00000088H.1 SFRSYM    DATA     BIT       IE0
      00000088H.3 SFRSYM    DATA     BIT       IE1
      000000AFH   SFRSYM    DATA     BYTE      IE2
      000000F0H   SFRSYM    DATA     BYTE      B
      0000008EH   SFRSYM    DATA     BYTE      AUXR
      000000FCH   SFRSYM    DATA     BYTE      USBADR
      000000C7H   SFRSYM    DATA     BYTE      IAP_CONTR
      000000ECH   SFRSYM    DATA     BYTE      USBDAT
      000000DCH   SFRSYM    DATA     BYTE      USBCLK
      000000E0H   SFRSYM    DATA     BYTE      ACC
      000000A8H.1 SFRSYM    DATA     BIT       ET0
      000000A8H.3 SFRSYM    DATA     BIT       ET1
      00000088H.5 SFRSYM    DATA     BIT       TF0
      000000FFH   SFRSYM    DATA     BYTE      RSTCFG
      000000B5H   SFRSYM    DATA     BYTE      IP2
      00000088H.7 SFRSYM    DATA     BIT       TF1
      000000F4H   SFRSYM    DATA     BYTE      USBCON
      000000DFH   SFRSYM    DATA     BYTE      IP3
      00000098H.2 SFRSYM    DATA     BIT       RB8
      0000008CH   SFRSYM    DATA     BYTE      TH0
      000000A8H.0 SFRSYM    DATA     BIT       EX0
      0000008DH   SFRSYM    DATA     BYTE      TH1
      00000088H.0 SFRSYM    DATA     BIT       IT0
      000000D6H   SFRSYM    DATA     BYTE      TH2
      000000D6H   SFRSYM    DATA     BYTE      T2H
      000000A8H.2 SFRSYM    DATA     BIT       EX1
      00000098H.3 SFRSYM    DATA     BIT       TB8
      00000088H.2 SFRSYM    DATA     BIT       IT1
      000000D4H   SFRSYM    DATA     BYTE      TH3
      000000D4H   SFRSYM    DATA     BYTE      T3H
      000000D0H.0 SFRSYM    DATA     BIT       P
      000000D2H   SFRSYM    DATA     BYTE      TH4
      000000D2H   SFRSYM    DATA     BYTE      T4H
      00000098H.7 SFRSYM    DATA     BIT       SM0
      0000008AH   SFRSYM    DATA     BYTE      TL0
      00000098H.6 SFRSYM    DATA     BIT       SM1
      0000008BH   SFRSYM    DATA     BYTE      TL1
      000000D7H   SFRSYM    DATA     BYTE      TL2
      000000D7H   SFRSYM    DATA     BYTE      T2L
      00000098H.5 SFRSYM    DATA     BIT       SM2
      000000D5H   SFRSYM    DATA     BYTE      TL3
      000000D5H   SFRSYM    DATA     BYTE      T3L
      000000D3H   SFRSYM    DATA     BYTE      TL4
      000000D3H   SFRSYM    DATA     BYTE      T4L
      000000B8H.1 SFRSYM    DATA     BIT       PT0
      000000D0H.3 SFRSYM    DATA     BIT       RS0
      000000B8H.3 SFRSYM    DATA     BIT       PT1
      000000D0H.4 SFRSYM    DATA     BIT       RS1
      000000C2H   SFRSYM    DATA     BYTE      IAP_DATA
      00000088H.4 SFRSYM    DATA     BIT       TR0
      00000088H.6 SFRSYM    DATA     BIT       TR1
      000000C1H   SFRSYM    DATA     BYTE      WDT_CONTR
      000000B8H.0 SFRSYM    DATA     BIT       PX0
      000000B8H.2 SFRSYM    DATA     BIT       PX1
LX51 LINKER/LOCATER V4.66.93.0                                                        12/24/2024  17:25:26  PAGE 57


      0000009FH   SFRSYM    DATA     BYTE      IRTRIM
      00000083H   SFRSYM    DATA     BYTE      DPH
      000000D1H   SFRSYM    DATA     BYTE      T3T4M
      000000D1H   SFRSYM    DATA     BYTE      T4T3M
      000000BEH   SFRSYM    DATA     BYTE      ADC_RESL
      00000082H   SFRSYM    DATA     BYTE      DPL
      000000CDH   SFRSYM    DATA     BYTE      SPSTAT
      000000B7H   SFRSYM    DATA     BYTE      IPH
      000000EDH   SFRSYM    DATA     BYTE      MDU32CR
      0000009BH   SFRSYM    DATA     BYTE      S2BUF
      000000ADH   SFRSYM    DATA     BYTE      S3BUF
      00000098H.4 SFRSYM    DATA     BIT       REN
      00000085H   SFRSYM    DATA     BYTE      S4BUF
      000000A6H   SFRSYM    DATA     BYTE      VRTRIM
      0000009AH   SFRSYM    DATA     BYTE      S2CON
      000000E3H   SFRSYM    DATA     BYTE      DPS
      000000ACH   SFRSYM    DATA     BYTE      S3CON
      00000084H   SFRSYM    DATA     BYTE      S4CON
      000000EFH   SFRSYM    DATA     BYTE      AUXINTIF
      000000B9H   SFRSYM    DATA     BYTE      SADEN
      000000B0H.0 SFRSYM    DATA     BIT       RXD
      000000A9H   SFRSYM    DATA     BYTE      SADDR
      000000B0H.1 SFRSYM    DATA     BIT       TXD
      000000DDH   SFRSYM    DATA     BYTE      MDU32SR
      000000C6H   SFRSYM    DATA     BYTE      IAP_TRIG
      000000D0H.5 SFRSYM    DATA     BIT       F0
      0000009DH   SFRSYM    DATA     BYTE      IRCBAND
      000000D0H.1 SFRSYM    DATA     BIT       F1
      000000D0H   SFRSYM    DATA     BYTE      PSW
      000000CFH   SFRSYM    DATA     BYTE      SPDAT
      00000094H   SFRSYM    DATA     BYTE      P0M0

      0100263BH   BLOCK     CODE     ---       LVL=0
      00000001H   SYMBOL    DATA     ---       key_cnt
      00000005H   SYMBOL    DATA     BYTE      v
      0100263BH   LINE      CODE     ---       #19
      0100263BH   LINE      CODE     ---       #20
      0100263BH   LINE      CODE     ---       #21
      0100263EH   LINE      CODE     ---       #22
      01002640H   LINE      CODE     ---       #24
      01002658H   LINE      CODE     ---       #26
      01002660H   LINE      CODE     ---       #27
      01002661H   LINE      CODE     ---       #29
      01002661H   LINE      CODE     ---       #30
      ---         BLOCKEND  ---      ---       LVL=0

      ---         MODULE    ---      ---       AT24C04
      000000DCH   SFRSYM    DATA     BYTE      PLLCR
      00000093H   SFRSYM    DATA     BYTE      P0M1
      00000092H   SFRSYM    DATA     BYTE      P1M0
      00000096H   SFRSYM    DATA     BYTE      P2M0
      00000091H   SFRSYM    DATA     BYTE      P1M1
      00000080H   SFRSYM    DATA     BYTE      P0
      000000B2H   SFRSYM    DATA     BYTE      P3M0
      00000095H   SFRSYM    DATA     BYTE      P2M1
      00000090H   SFRSYM    DATA     BYTE      P1
      000000B4H   SFRSYM    DATA     BYTE      P4M0
      000000B1H   SFRSYM    DATA     BYTE      P3M1
      000000A0H   SFRSYM    DATA     BYTE      P2
      000000CAH   SFRSYM    DATA     BYTE      P5M0
      000000B3H   SFRSYM    DATA     BYTE      P4M1
      000000B0H   SFRSYM    DATA     BYTE      P3
      000000ABH   SFRSYM    DATA     BYTE      WKTCH
      000000D0H.6 SFRSYM    DATA     BIT       AC
      000000CCH   SFRSYM    DATA     BYTE      P6M0
LX51 LINKER/LOCATER V4.66.93.0                                                        12/24/2024  17:25:26  PAGE 58


      000000C9H   SFRSYM    DATA     BYTE      P5M1
      000000C0H   SFRSYM    DATA     BYTE      P4
      000000B0H.4 SFRSYM    DATA     BIT       T0
      000000E2H   SFRSYM    DATA     BYTE      P7M0
      000000CBH   SFRSYM    DATA     BYTE      P6M1
      000000C8H   SFRSYM    DATA     BYTE      P5
      000000B0H.5 SFRSYM    DATA     BIT       T1
      000000E8H   SFRSYM    DATA     BYTE      P6
      000000E1H   SFRSYM    DATA     BYTE      P7M1
      000000A8H.7 SFRSYM    DATA     BIT       EA
      000000F8H   SFRSYM    DATA     BYTE      P7
      000000AAH   SFRSYM    DATA     BYTE      WKTCL
      000000CEH   SFRSYM    DATA     BYTE      SPCTL
      000000A2H   SFRSYM    DATA     BYTE      P_SW1
      000000BAH   SFRSYM    DATA     BYTE      P_SW2
      000000E5H   SFRSYM    DATA     BYTE      DPH1
      000000A8H.5 SFRSYM    DATA     BIT       EADC
      000000A8H   SFRSYM    DATA     BYTE      IE
      000000C5H   SFRSYM    DATA     BYTE      IAP_CMD
      000000E4H   SFRSYM    DATA     BYTE      DPL1
      000000BDH   SFRSYM    DATA     BYTE      ADC_RES
      000000B6H   SFRSYM    DATA     BYTE      IP2H
      000000EEH   SFRSYM    DATA     BYTE      IP3H
      000000AEH   SFRSYM    DATA     BYTE      TA
      000000B0H.7 SFRSYM    DATA     BIT       RD
      0000008FH   SFRSYM    DATA     BYTE      INTCLKO
      000000A8H.4 SFRSYM    DATA     BIT       ES
      000000B8H.5 SFRSYM    DATA     BIT       PADC
      000000B8H   SFRSYM    DATA     BYTE      IP
      000000DEH   SFRSYM    DATA     BYTE      ADCCFG
      00000098H.0 SFRSYM    DATA     BIT       RI
      000000D0H.7 SFRSYM    DATA     BIT       CY
      000000B0H.2 SFRSYM    DATA     BIT       INT0
      000000B0H.3 SFRSYM    DATA     BIT       INT1
      00000098H.1 SFRSYM    DATA     BIT       TI
      000000C3H   SFRSYM    DATA     BYTE      IAP_ADDRH
      000000B8H.4 SFRSYM    DATA     BIT       PS
      00000081H   SFRSYM    DATA     BYTE      SP
      000000C4H   SFRSYM    DATA     BYTE      IAP_ADDRL
      000000D0H.2 SFRSYM    DATA     BIT       OV
      0000009EH   SFRSYM    DATA     BYTE      LIRTRIM
      000000E6H   SFRSYM    DATA     BYTE      CMPCR1
      000000E7H   SFRSYM    DATA     BYTE      CMPCR2
      000000B0H.6 SFRSYM    DATA     BIT       WR
      000000A8H.6 SFRSYM    DATA     BIT       ELVD
      00000080H.0 SFRSYM    DATA     BIT       P00
      000000BCH   SFRSYM    DATA     BYTE      ADC_CONTR
      00000099H   SFRSYM    DATA     BYTE      SBUF
      00000090H.0 SFRSYM    DATA     BIT       P10
      00000087H   SFRSYM    DATA     BYTE      PCON
      00000080H.1 SFRSYM    DATA     BIT       P01
      000000A0H.0 SFRSYM    DATA     BIT       P20
      00000090H.1 SFRSYM    DATA     BIT       P11
      00000080H.2 SFRSYM    DATA     BIT       P02
      000000F5H   SFRSYM    DATA     BYTE      IAP_TPS
      000000B0H.0 SFRSYM    DATA     BIT       P30
      000000A0H.1 SFRSYM    DATA     BIT       P21
      00000090H.2 SFRSYM    DATA     BIT       P12
      00000080H.3 SFRSYM    DATA     BIT       P03
      000000C0H.0 SFRSYM    DATA     BIT       P40
      000000B0H.1 SFRSYM    DATA     BIT       P31
      000000A0H.2 SFRSYM    DATA     BIT       P22
      00000098H   SFRSYM    DATA     BYTE      SCON
      00000090H.3 SFRSYM    DATA     BIT       P13
      00000080H.4 SFRSYM    DATA     BIT       P04
LX51 LINKER/LOCATER V4.66.93.0                                                        12/24/2024  17:25:26  PAGE 59


      000000C8H.0 SFRSYM    DATA     BIT       P50
      000000C0H.1 SFRSYM    DATA     BIT       P41
      000000B0H.2 SFRSYM    DATA     BIT       P32
      000000A0H.3 SFRSYM    DATA     BIT       P23
      00000090H.4 SFRSYM    DATA     BIT       P14
      00000089H   SFRSYM    DATA     BYTE      TMOD
      00000088H   SFRSYM    DATA     BYTE      TCON
      00000080H.5 SFRSYM    DATA     BIT       P05
      000000E8H.0 SFRSYM    DATA     BIT       P60
      000000C8H.1 SFRSYM    DATA     BIT       P51
      000000C0H.2 SFRSYM    DATA     BIT       P42
      000000B0H.3 SFRSYM    DATA     BIT       P33
      000000A0H.4 SFRSYM    DATA     BIT       P24
      00000090H.5 SFRSYM    DATA     BIT       P15
      00000080H.6 SFRSYM    DATA     BIT       P06
      000000F8H.0 SFRSYM    DATA     BIT       P70
      000000E8H.1 SFRSYM    DATA     BIT       P61
      000000C8H.2 SFRSYM    DATA     BIT       P52
      000000C0H.3 SFRSYM    DATA     BIT       P43
      000000B8H.6 SFRSYM    DATA     BIT       PLVD
      000000B0H.4 SFRSYM    DATA     BIT       P34
      000000A0H.5 SFRSYM    DATA     BIT       P25
      00000090H.6 SFRSYM    DATA     BIT       P16
      00000080H.7 SFRSYM    DATA     BIT       P07
      000000F8H.1 SFRSYM    DATA     BIT       P71
      000000E8H.2 SFRSYM    DATA     BIT       P62
      000000C8H.3 SFRSYM    DATA     BIT       P53
      000000C0H.4 SFRSYM    DATA     BIT       P44
      000000B0H.5 SFRSYM    DATA     BIT       P35
      000000A0H.6 SFRSYM    DATA     BIT       P26
      00000090H.7 SFRSYM    DATA     BIT       P17
      000000F8H.2 SFRSYM    DATA     BIT       P72
      000000E8H.3 SFRSYM    DATA     BIT       P63
      000000C8H.4 SFRSYM    DATA     BIT       P54
      000000C0H.5 SFRSYM    DATA     BIT       P45
      000000B0H.6 SFRSYM    DATA     BIT       P36
      000000A0H.7 SFRSYM    DATA     BIT       P27
      000000F8H.3 SFRSYM    DATA     BIT       P73
      000000E8H.4 SFRSYM    DATA     BIT       P64
      000000C8H.5 SFRSYM    DATA     BIT       P55
      000000C0H.6 SFRSYM    DATA     BIT       P46
      000000B0H.7 SFRSYM    DATA     BIT       P37
      000000F8H.4 SFRSYM    DATA     BIT       P74
      000000E8H.5 SFRSYM    DATA     BIT       P65
      000000C8H.6 SFRSYM    DATA     BIT       P56
      000000C0H.7 SFRSYM    DATA     BIT       P47
      000000F8H.5 SFRSYM    DATA     BIT       P75
      000000E8H.6 SFRSYM    DATA     BIT       P66
      000000C8H.7 SFRSYM    DATA     BIT       P57
      000000F8H.6 SFRSYM    DATA     BIT       P76
      000000E8H.7 SFRSYM    DATA     BIT       P67
      000000F8H.7 SFRSYM    DATA     BIT       P77
      000000A1H   SFRSYM    DATA     BYTE      BUS_SPEED
      00000088H.1 SFRSYM    DATA     BIT       IE0
      00000088H.3 SFRSYM    DATA     BIT       IE1
      000000AFH   SFRSYM    DATA     BYTE      IE2
      000000F0H   SFRSYM    DATA     BYTE      B
      0000008EH   SFRSYM    DATA     BYTE      AUXR
      000000FCH   SFRSYM    DATA     BYTE      USBADR
      000000C7H   SFRSYM    DATA     BYTE      IAP_CONTR
      000000ECH   SFRSYM    DATA     BYTE      USBDAT
      000000DCH   SFRSYM    DATA     BYTE      USBCLK
      000000E0H   SFRSYM    DATA     BYTE      ACC
      000000A8H.1 SFRSYM    DATA     BIT       ET0
      000000A8H.3 SFRSYM    DATA     BIT       ET1
LX51 LINKER/LOCATER V4.66.93.0                                                        12/24/2024  17:25:26  PAGE 60


      00000088H.5 SFRSYM    DATA     BIT       TF0
      000000FFH   SFRSYM    DATA     BYTE      RSTCFG
      000000B5H   SFRSYM    DATA     BYTE      IP2
      00000088H.7 SFRSYM    DATA     BIT       TF1
      000000F4H   SFRSYM    DATA     BYTE      USBCON
      000000DFH   SFRSYM    DATA     BYTE      IP3
      00000098H.2 SFRSYM    DATA     BIT       RB8
      0000008CH   SFRSYM    DATA     BYTE      TH0
      000000A8H.0 SFRSYM    DATA     BIT       EX0
      0000008DH   SFRSYM    DATA     BYTE      TH1
      00000088H.0 SFRSYM    DATA     BIT       IT0
      000000D6H   SFRSYM    DATA     BYTE      TH2
      000000D6H   SFRSYM    DATA     BYTE      T2H
      000000A8H.2 SFRSYM    DATA     BIT       EX1
      00000098H.3 SFRSYM    DATA     BIT       TB8
      00000088H.2 SFRSYM    DATA     BIT       IT1
      000000D4H   SFRSYM    DATA     BYTE      TH3
      000000D4H   SFRSYM    DATA     BYTE      T3H
      000000D0H.0 SFRSYM    DATA     BIT       P
      000000D2H   SFRSYM    DATA     BYTE      TH4
      000000D2H   SFRSYM    DATA     BYTE      T4H
      00000098H.7 SFRSYM    DATA     BIT       SM0
      0000008AH   SFRSYM    DATA     BYTE      TL0
      00000098H.6 SFRSYM    DATA     BIT       SM1
      0000008BH   SFRSYM    DATA     BYTE      TL1
      000000D7H   SFRSYM    DATA     BYTE      TL2
      000000D7H   SFRSYM    DATA     BYTE      T2L
      00000098H.5 SFRSYM    DATA     BIT       SM2
      000000D5H   SFRSYM    DATA     BYTE      TL3
      000000D5H   SFRSYM    DATA     BYTE      T3L
      000000D3H   SFRSYM    DATA     BYTE      TL4
      000000D3H   SFRSYM    DATA     BYTE      T4L
      000000B8H.1 SFRSYM    DATA     BIT       PT0
      000000D0H.3 SFRSYM    DATA     BIT       RS0
      000000B8H.3 SFRSYM    DATA     BIT       PT1
      000000D0H.4 SFRSYM    DATA     BIT       RS1
      000000C2H   SFRSYM    DATA     BYTE      IAP_DATA
      00000088H.4 SFRSYM    DATA     BIT       TR0
      00000088H.6 SFRSYM    DATA     BIT       TR1
      00000090H.4 SFRSYM    DATA     BIT       SDA
      000000C1H   SFRSYM    DATA     BYTE      WDT_CONTR
      000000B8H.0 SFRSYM    DATA     BIT       PX0
      000000B8H.2 SFRSYM    DATA     BIT       PX1
      0000009FH   SFRSYM    DATA     BYTE      IRTRIM
      00000083H   SFRSYM    DATA     BYTE      DPH
      000000D1H   SFRSYM    DATA     BYTE      T3T4M
      000000D1H   SFRSYM    DATA     BYTE      T4T3M
      000000BEH   SFRSYM    DATA     BYTE      ADC_RESL
      00000082H   SFRSYM    DATA     BYTE      DPL
      000000CDH   SFRSYM    DATA     BYTE      SPSTAT
      000000B7H   SFRSYM    DATA     BYTE      IPH
      00000090H.5 SFRSYM    DATA     BIT       SCL
      000000EDH   SFRSYM    DATA     BYTE      MDU32CR
      0000009BH   SFRSYM    DATA     BYTE      S2BUF
      000000ADH   SFRSYM    DATA     BYTE      S3BUF
      00000098H.4 SFRSYM    DATA     BIT       REN
      00000085H   SFRSYM    DATA     BYTE      S4BUF
      000000A6H   SFRSYM    DATA     BYTE      VRTRIM
      0000009AH   SFRSYM    DATA     BYTE      S2CON
      000000E3H   SFRSYM    DATA     BYTE      DPS
      000000ACH   SFRSYM    DATA     BYTE      S3CON
      00000084H   SFRSYM    DATA     BYTE      S4CON
      000000EFH   SFRSYM    DATA     BYTE      AUXINTIF
      000000B9H   SFRSYM    DATA     BYTE      SADEN
      000000B0H.0 SFRSYM    DATA     BIT       RXD
LX51 LINKER/LOCATER V4.66.93.0                                                        12/24/2024  17:25:26  PAGE 61


      000000A9H   SFRSYM    DATA     BYTE      SADDR
      000000B0H.1 SFRSYM    DATA     BIT       TXD
      000000DDH   SFRSYM    DATA     BYTE      MDU32SR
      000000C6H   SFRSYM    DATA     BYTE      IAP_TRIG
      000000D0H.5 SFRSYM    DATA     BIT       F0
      0000009DH   SFRSYM    DATA     BYTE      IRCBAND
      000000D0H.1 SFRSYM    DATA     BIT       F1
      000000D0H   SFRSYM    DATA     BYTE      PSW
      000000CFH   SFRSYM    DATA     BYTE      SPDAT
      00000094H   SFRSYM    DATA     BYTE      P0M0
      00000023H.5 SYMBOL    BIT      BIT       busy
      00000007H   SYMBOL    DATA     BYTE      addr

      ---         MODULE    ---      ---       PRINTF
      02000208H   PUBLIC    XDATA    ---       ?_PRINTF?BYTE
      02000208H   PUBLIC    XDATA    ---       ?_SPRINTF?BYTE
      010009A5H   PUBLIC    CODE     ---       _PRINTF
      0100099FH   PUBLIC    CODE     ---       _SPRINTF

      ---         MODULE    ---      ---       VSPRINTF
      020101C4H   PUBLIC    XDATA    ---       ?_VSPRINTF?BYTE
      01002293H   PUBLIC    CODE     ---       _VSPRINTF

      ---         MODULE    ---      ---       ?C?FPROUND
      010000CEH   PUBLIC    CODE     ---       ?C?FPROUND

      ---         MODULE    ---      ---       ?C?FPCONVERT
      0100010BH   PUBLIC    CODE     ---       ?C?FPCONVERT

      ---         MODULE    ---      ---       ?C?FPADD
      01000217H   PUBLIC    CODE     ---       ?C?FPADD
      01000213H   PUBLIC    CODE     ---       ?C?FPSUB

      ---         MODULE    ---      ---       ?C?FPMUL
      01000308H   PUBLIC    CODE     ---       ?C?FPMUL

      ---         MODULE    ---      ---       ?C?FPDIV
      01000411H   PUBLIC    CODE     ---       ?C?FPDIV

      ---         MODULE    ---      ---       ?C?FTNPWR
      010004DEH   PUBLIC    CODE     ---       ?C?FTNPWR

      ---         MODULE    ---      ---       ?C?FPGETOPN
      0100051EH   PUBLIC    CODE     ---       ?C?FPGETOPN2
      01000553H   PUBLIC    CODE     ---       ?C?FPNANRESULT
      0100055DH   PUBLIC    CODE     ---       ?C?FPOVERFLOW
      01000535H   PUBLIC    CODE     ---       ?C?FPRESULT
      01000549H   PUBLIC    CODE     ---       ?C?FPRESULT2
      0100055AH   PUBLIC    CODE     ---       ?C?FPUNDERFLOW

      ---         MODULE    ---      ---       ?C_INIT
      01001C22H   PUBLIC    CODE     ---       ?C_START

      ---         MODULE    ---      ---       ?C?COPY
      01000638H   PUBLIC    CODE     ---       ?C?COPY

      ---         MODULE    ---      ---       ?C?CLDPTR
      0100065EH   PUBLIC    CODE     ---       ?C?CLDPTR

      ---         MODULE    ---      ---       ?C?CLDOPTR
      01000677H   PUBLIC    CODE     ---       ?C?CLDOPTR

      ---         MODULE    ---      ---       ?C?CSTPTR
      010006A4H   PUBLIC    CODE     ---       ?C?CSTPTR

LX51 LINKER/LOCATER V4.66.93.0                                                        12/24/2024  17:25:26  PAGE 62


      ---         MODULE    ---      ---       ?C?IMUL
      010006B6H   PUBLIC    CODE     ---       ?C?IMUL

      ---         MODULE    ---      ---       ?C?UIDIV
      010006C8H   PUBLIC    CODE     ---       ?C?UIDIV

      ---         MODULE    ---      ---       ?C?IILDX
      0100071DH   PUBLIC    CODE     ---       ?C?IILDX

      ---         MODULE    ---      ---       ?C?ILDIX
      01000733H   PUBLIC    CODE     ---       ?C?ILDIX

      ---         MODULE    ---      ---       ?C?LMUL
      01000749H   PUBLIC    CODE     ---       ?C?LMUL

      ---         MODULE    ---      ---       ?C?ULDIV
      010007D4H   PUBLIC    CODE     ---       ?C?ULDIV

      ---         MODULE    ---      ---       ?C?ULCMP
      01000866H   PUBLIC    CODE     ---       ?C?ULCMP

      ---         MODULE    ---      ---       ?C?LSHL
      01000877H   PUBLIC    CODE     ---       ?C?LSHL

      ---         MODULE    ---      ---       ?C?LSTXDATA
      0100088AH   PUBLIC    CODE     ---       ?C?LSTXDATA

      ---         MODULE    ---      ---       ?C?LSTKXDATA
      01000896H   PUBLIC    CODE     ---       ?C?LSTKXDATA

      ---         MODULE    ---      ---       ?C?PLDIXDATA
      010008C7H   PUBLIC    CODE     ---       ?C?PLDIXDATA

      ---         MODULE    ---      ---       ?C?PSTXDATA
      010008DEH   PUBLIC    CODE     ---       ?C?PSTXDATA

      ---         MODULE    ---      ---       ?C?CCASE
      010008E7H   PUBLIC    CODE     ---       ?C?CCASE

      ---         MODULE    ---      ---       ?C?LIMUL
      0100090DH   PUBLIC    CODE     ---       ?C?LIMUL

      ---         MODULE    ---      ---       PUTCHAR
      01002662H   PUBLIC    CODE     ---       _PUTCHAR

      ---         MODULE    ---      ---       STRLEN



*** WARNING L15: MULTIPLE CALL TO FUNCTION
    NAME:    PRINTF/PRINTF
    CALLER1: ?C_C51STARTUP
    CALLER2: USB_ISR/USB

*** WARNING L15: MULTIPLE CALL TO FUNCTION
    NAME:    _USB_BULK_INTR_IN/USB
    CALLER1: ?C_C51STARTUP
    CALLER2: USB_ISR/USB

Program Size: data=22.6 xdata=579 const=348 code=10307
LX51 RUN COMPLETE.  2 WARNING(S),  0 ERROR(S)
